
Project_6_9.elf:     file format elf32-avr

Sections:
Idx Name          Size      VMA       LMA       File off  Algn
  0 .data         00000196  00800100  000019ac  00001a40  2**0
                  CONTENTS, ALLOC, LOAD, DATA
  1 .text         000019ac  00000000  00000000  00000094  2**1
                  CONTENTS, ALLOC, LOAD, READONLY, CODE
  2 .bss          00000146  00800296  00800296  00001bd6  2**0
                  ALLOC
  3 .debug_aranges 000001a0  00000000  00000000  00001bd6  2**0
                  CONTENTS, READONLY, DEBUGGING
  4 .debug_pubnames 00000a03  00000000  00000000  00001d76  2**0
                  CONTENTS, READONLY, DEBUGGING
  5 .debug_info   0000233f  00000000  00000000  00002779  2**0
                  CONTENTS, READONLY, DEBUGGING
  6 .debug_abbrev 00000c36  00000000  00000000  00004ab8  2**0
                  CONTENTS, READONLY, DEBUGGING
  7 .debug_line   00001c07  00000000  00000000  000056ee  2**0
                  CONTENTS, READONLY, DEBUGGING
  8 .debug_frame  000005f0  00000000  00000000  000072f8  2**2
                  CONTENTS, READONLY, DEBUGGING
  9 .debug_str    00000a1d  00000000  00000000  000078e8  2**0
                  CONTENTS, READONLY, DEBUGGING
 10 .debug_loc    00001292  00000000  00000000  00008305  2**0
                  CONTENTS, READONLY, DEBUGGING
 11 .debug_ranges 00000090  00000000  00000000  00009597  2**0
                  CONTENTS, READONLY, DEBUGGING

Disassembly of section .text:

00000000 <__vectors>:
       0:	0c 94 9c 00 	jmp	0x138	; 0x138 <__ctors_end>
       4:	0c 94 bb 00 	jmp	0x176	; 0x176 <__bad_interrupt>
       8:	0c 94 bb 00 	jmp	0x176	; 0x176 <__bad_interrupt>
       c:	0c 94 bb 00 	jmp	0x176	; 0x176 <__bad_interrupt>
      10:	0c 94 bb 00 	jmp	0x176	; 0x176 <__bad_interrupt>
      14:	0c 94 bb 00 	jmp	0x176	; 0x176 <__bad_interrupt>
      18:	0c 94 bb 00 	jmp	0x176	; 0x176 <__bad_interrupt>
      1c:	0c 94 bb 00 	jmp	0x176	; 0x176 <__bad_interrupt>
      20:	0c 94 bb 00 	jmp	0x176	; 0x176 <__bad_interrupt>
      24:	0c 94 bb 00 	jmp	0x176	; 0x176 <__bad_interrupt>
      28:	0c 94 bb 00 	jmp	0x176	; 0x176 <__bad_interrupt>
      2c:	0c 94 bb 00 	jmp	0x176	; 0x176 <__bad_interrupt>
      30:	0c 94 bb 00 	jmp	0x176	; 0x176 <__bad_interrupt>
      34:	0c 94 bb 00 	jmp	0x176	; 0x176 <__bad_interrupt>
      38:	0c 94 bb 00 	jmp	0x176	; 0x176 <__bad_interrupt>
      3c:	0c 94 bb 00 	jmp	0x176	; 0x176 <__bad_interrupt>
      40:	0c 94 de 02 	jmp	0x5bc	; 0x5bc <__vector_16>
      44:	0c 94 bb 00 	jmp	0x176	; 0x176 <__bad_interrupt>
      48:	0c 94 bb 00 	jmp	0x176	; 0x176 <__bad_interrupt>
      4c:	0c 94 bb 00 	jmp	0x176	; 0x176 <__bad_interrupt>
      50:	0c 94 bb 00 	jmp	0x176	; 0x176 <__bad_interrupt>
      54:	0c 94 bb 00 	jmp	0x176	; 0x176 <__bad_interrupt>
      58:	0c 94 bb 00 	jmp	0x176	; 0x176 <__bad_interrupt>
      5c:	0c 94 bb 00 	jmp	0x176	; 0x176 <__bad_interrupt>
      60:	0c 94 bb 00 	jmp	0x176	; 0x176 <__bad_interrupt>
      64:	0c 94 bb 00 	jmp	0x176	; 0x176 <__bad_interrupt>
      68:	0c 94 bb 00 	jmp	0x176	; 0x176 <__bad_interrupt>
      6c:	0c 94 bb 00 	jmp	0x176	; 0x176 <__bad_interrupt>
      70:	0c 94 bb 00 	jmp	0x176	; 0x176 <__bad_interrupt>
      74:	0c 94 bb 00 	jmp	0x176	; 0x176 <__bad_interrupt>
      78:	0c 94 bb 00 	jmp	0x176	; 0x176 <__bad_interrupt>
      7c:	0c 94 bb 00 	jmp	0x176	; 0x176 <__bad_interrupt>
      80:	0c 94 bb 00 	jmp	0x176	; 0x176 <__bad_interrupt>
      84:	0c 94 bb 00 	jmp	0x176	; 0x176 <__bad_interrupt>
      88:	0c 94 bb 00 	jmp	0x176	; 0x176 <__bad_interrupt>
      8c:	25 0b       	sbc	r18, r21
      8e:	25 0b       	sbc	r18, r21
      90:	25 0b       	sbc	r18, r21
      92:	25 0b       	sbc	r18, r21
      94:	25 0b       	sbc	r18, r21
      96:	25 0b       	sbc	r18, r21
      98:	25 0b       	sbc	r18, r21
      9a:	25 0b       	sbc	r18, r21
      9c:	25 0b       	sbc	r18, r21
      9e:	25 0b       	sbc	r18, r21
      a0:	25 0b       	sbc	r18, r21
      a2:	25 0b       	sbc	r18, r21
      a4:	25 0b       	sbc	r18, r21
      a6:	0c 0b       	sbc	r16, r28
      a8:	25 0b       	sbc	r18, r21
      aa:	25 0b       	sbc	r18, r21
      ac:	85 0a       	sbc	r8, r21
      ae:	8a 0a       	sbc	r8, r26
      b0:	8f 0a       	sbc	r8, r31
      b2:	94 0a       	sbc	r9, r20
      b4:	99 0a       	sbc	r9, r25
      b6:	9e 0a       	sbc	r9, r30
      b8:	a3 0a       	sbc	r10, r19
      ba:	a8 0a       	sbc	r10, r24
      bc:	ad 0a       	sbc	r10, r29
      be:	b2 0a       	sbc	r11, r18
      c0:	25 0b       	sbc	r18, r21
      c2:	25 0b       	sbc	r18, r21
      c4:	25 0b       	sbc	r18, r21
      c6:	25 0b       	sbc	r18, r21
      c8:	25 0b       	sbc	r18, r21
      ca:	25 0b       	sbc	r18, r21
      cc:	25 0b       	sbc	r18, r21
      ce:	b7 0a       	sbc	r11, r23
      d0:	bc 0a       	sbc	r11, r28
      d2:	c1 0a       	sbc	r12, r17
      d4:	c6 0a       	sbc	r12, r22
      d6:	cb 0a       	sbc	r12, r27
      d8:	d0 0a       	sbc	r13, r16
      da:	d5 0a       	sbc	r13, r21
      dc:	da 0a       	sbc	r13, r26
      de:	df 0a       	sbc	r13, r31
      e0:	25 0b       	sbc	r18, r21
      e2:	e4 0a       	sbc	r14, r20
      e4:	e9 0a       	sbc	r14, r25
      e6:	25 0b       	sbc	r18, r21
      e8:	25 0b       	sbc	r18, r21
      ea:	ee 0a       	sbc	r14, r30
      ec:	f3 0a       	sbc	r15, r19
      ee:	25 0b       	sbc	r18, r21
      f0:	f8 0a       	sbc	r15, r24
      f2:	fd 0a       	sbc	r15, r29
      f4:	02 0b       	sbc	r16, r18
      f6:	25 0b       	sbc	r18, r21
      f8:	25 0b       	sbc	r18, r21
      fa:	25 0b       	sbc	r18, r21
      fc:	25 0b       	sbc	r18, r21
      fe:	07 0b       	sbc	r16, r23
     100:	25 0b       	sbc	r18, r21
     102:	25 0b       	sbc	r18, r21
     104:	25 0b       	sbc	r18, r21
     106:	25 0b       	sbc	r18, r21
     108:	25 0b       	sbc	r18, r21
     10a:	25 0b       	sbc	r18, r21
     10c:	25 0b       	sbc	r18, r21
     10e:	25 0b       	sbc	r18, r21
     110:	25 0b       	sbc	r18, r21
     112:	25 0b       	sbc	r18, r21
     114:	25 0b       	sbc	r18, r21
     116:	25 0b       	sbc	r18, r21
     118:	25 0b       	sbc	r18, r21
     11a:	25 0b       	sbc	r18, r21
     11c:	25 0b       	sbc	r18, r21
     11e:	16 0b       	sbc	r17, r22
     120:	25 0b       	sbc	r18, r21
     122:	25 0b       	sbc	r18, r21
     124:	25 0b       	sbc	r18, r21
     126:	25 0b       	sbc	r18, r21
     128:	1b 0b       	sbc	r17, r27
     12a:	25 0b       	sbc	r18, r21
     12c:	25 0b       	sbc	r18, r21
     12e:	25 0b       	sbc	r18, r21
     130:	25 0b       	sbc	r18, r21
     132:	20 0b       	sbc	r18, r16
     134:	25 0b       	sbc	r18, r21
     136:	11 0b       	sbc	r17, r17

00000138 <__ctors_end>:
     138:	11 24       	eor	r1, r1
     13a:	1f be       	out	0x3f, r1	; 63
     13c:	cf ef       	ldi	r28, 0xFF	; 255
     13e:	d0 e1       	ldi	r29, 0x10	; 16
     140:	de bf       	out	0x3e, r29	; 62
     142:	cd bf       	out	0x3d, r28	; 61

00000144 <__do_copy_data>:
     144:	12 e0       	ldi	r17, 0x02	; 2
     146:	a0 e0       	ldi	r26, 0x00	; 0
     148:	b1 e0       	ldi	r27, 0x01	; 1
     14a:	ec ea       	ldi	r30, 0xAC	; 172
     14c:	f9 e1       	ldi	r31, 0x19	; 25
     14e:	00 e0       	ldi	r16, 0x00	; 0
     150:	0b bf       	out	0x3b, r16	; 59
     152:	02 c0       	rjmp	.+4      	; 0x158 <__do_copy_data+0x14>
     154:	07 90       	elpm	r0, Z+
     156:	0d 92       	st	X+, r0
     158:	a6 39       	cpi	r26, 0x96	; 150
     15a:	b1 07       	cpc	r27, r17
     15c:	d9 f7       	brne	.-10     	; 0x154 <__do_copy_data+0x10>

0000015e <__do_clear_bss>:
     15e:	13 e0       	ldi	r17, 0x03	; 3
     160:	a6 e9       	ldi	r26, 0x96	; 150
     162:	b2 e0       	ldi	r27, 0x02	; 2
     164:	01 c0       	rjmp	.+2      	; 0x168 <.do_clear_bss_start>

00000166 <.do_clear_bss_loop>:
     166:	1d 92       	st	X+, r1

00000168 <.do_clear_bss_start>:
     168:	ac 3d       	cpi	r26, 0xDC	; 220
     16a:	b1 07       	cpc	r27, r17
     16c:	e1 f7       	brne	.-8      	; 0x166 <.do_clear_bss_loop>
     16e:	0e 94 1f 03 	call	0x63e	; 0x63e <main>
     172:	0c 94 d4 0c 	jmp	0x19a8	; 0x19a8 <_exit>

00000176 <__bad_interrupt>:
     176:	0c 94 00 00 	jmp	0	; 0x0 <__vectors>

0000017a <WatchSetControl>:





}
     17a:	08 95       	ret

0000017c <ToNextState>:
State openStart(DoorInfo *pInfo);
State openedStart(DoorInfo *pInfo, ShortInt keyPressed);
State closeStart(DoorInfo *pInfo, ShortInt keyPressed);
State closingToNext(ShortInt keyPressed);
State ToNextState(DoorInfo *pInfo, ShortInt keyPressed)
{
     17c:	fc 01       	movw	r30, r24
	switch(pInfo->mode){
     17e:	20 81       	ld	r18, Z
     180:	31 81       	ldd	r19, Z+1	; 0x01
     182:	22 30       	cpi	r18, 0x02	; 2
     184:	31 05       	cpc	r19, r1
     186:	29 f1       	breq	.+74     	; 0x1d2 <ToNextState+0x56>
     188:	23 30       	cpi	r18, 0x03	; 3
     18a:	31 05       	cpc	r19, r1
     18c:	3c f4       	brge	.+14     	; 0x19c <ToNextState+0x20>
     18e:	21 15       	cp	r18, r1
     190:	31 05       	cpc	r19, r1
     192:	59 f0       	breq	.+22     	; 0x1aa <ToNextState+0x2e>
     194:	21 30       	cpi	r18, 0x01	; 1
     196:	31 05       	cpc	r19, r1
     198:	61 f5       	brne	.+88     	; 0x1f2 <ToNextState+0x76>
     19a:	10 c0       	rjmp	.+32     	; 0x1bc <ToNextState+0x40>
     19c:	23 30       	cpi	r18, 0x03	; 3
     19e:	31 05       	cpc	r19, r1
     1a0:	09 f1       	breq	.+66     	; 0x1e4 <ToNextState+0x68>
     1a2:	24 30       	cpi	r18, 0x04	; 4
     1a4:	31 05       	cpc	r19, r1
     1a6:	29 f5       	brne	.+74     	; 0x1f2 <ToNextState+0x76>
     1a8:	14 c0       	rjmp	.+40     	; 0x1d2 <ToNextState+0x56>
}


State openStart(DoorInfo *pInfo)
{
	pInfo->openingStartTime.sec = CurrentTime.second;
     1aa:	80 91 c6 02 	lds	r24, 0x02C6
     1ae:	82 83       	std	Z+2, r24	; 0x02
	pInfo->openingStartTime.tenMili = tenMiliSec;
     1b0:	80 91 a0 02 	lds	r24, 0x02A0
     1b4:	83 83       	std	Z+3, r24	; 0x03
     1b6:	21 e0       	ldi	r18, 0x01	; 1
     1b8:	30 e0       	ldi	r19, 0x00	; 0
     1ba:	1b c0       	rjmp	.+54     	; 0x1f2 <ToNextState+0x76>
}


State openedStart(DoorInfo *pInfo, ShortInt keyPressed)
{
	pInfo->openedStartTime.sec = CurrentTime.second;
     1bc:	80 91 c6 02 	lds	r24, 0x02C6
     1c0:	84 83       	std	Z+4, r24	; 0x04
	pInfo->openedStartTime.tenMili = tenMiliSec;
     1c2:	80 91 a0 02 	lds	r24, 0x02A0
     1c6:	85 83       	std	Z+5, r24	; 0x05
	if (keyPressed == true) // 강제로 멈춤
     1c8:	61 30       	cpi	r22, 0x01	; 1
     1ca:	89 f0       	breq	.+34     	; 0x1ee <ToNextState+0x72>
     1cc:	22 e0       	ldi	r18, 0x02	; 2
     1ce:	30 e0       	ldi	r19, 0x00	; 0
     1d0:	10 c0       	rjmp	.+32     	; 0x1f2 <ToNextState+0x76>
}


State closeStart(DoorInfo *pInfo, ShortInt keyPressed)
{
	pInfo->closingStartTime.sec = CurrentTime.second;
     1d2:	80 91 c6 02 	lds	r24, 0x02C6
     1d6:	86 83       	std	Z+6, r24	; 0x06
	pInfo->closingStartTime.tenMili = tenMiliSec;
     1d8:	80 91 a0 02 	lds	r24, 0x02A0
     1dc:	87 83       	std	Z+7, r24	; 0x07
     1de:	23 e0       	ldi	r18, 0x03	; 3
     1e0:	30 e0       	ldi	r19, 0x00	; 0
     1e2:	07 c0       	rjmp	.+14     	; 0x1f2 <ToNextState+0x76>
}


State closingToNext(ShortInt keyPressed)
{
	if (keyPressed == true) // 강제로 멈춤
     1e4:	61 30       	cpi	r22, 0x01	; 1
     1e6:	19 f0       	breq	.+6      	; 0x1ee <ToNextState+0x72>
     1e8:	20 e0       	ldi	r18, 0x00	; 0
     1ea:	30 e0       	ldi	r19, 0x00	; 0
     1ec:	02 c0       	rjmp	.+4      	; 0x1f2 <ToNextState+0x76>
     1ee:	24 e0       	ldi	r18, 0x04	; 4
     1f0:	30 e0       	ldi	r19, 0x00	; 0
	case DOOR_CLOSING:
		return closingToNext(keyPressed);		
	default:
		return pInfo->mode;
	}
}
     1f2:	c9 01       	movw	r24, r18
     1f4:	08 95       	ret

000001f6 <openStart>:


State openStart(DoorInfo *pInfo)
{
     1f6:	fc 01       	movw	r30, r24
	pInfo->openingStartTime.sec = CurrentTime.second;
     1f8:	80 91 c6 02 	lds	r24, 0x02C6
     1fc:	82 83       	std	Z+2, r24	; 0x02
	pInfo->openingStartTime.tenMili = tenMiliSec;
     1fe:	80 91 a0 02 	lds	r24, 0x02A0
     202:	83 83       	std	Z+3, r24	; 0x03
	return DOOR_OPENING;
}
     204:	81 e0       	ldi	r24, 0x01	; 1
     206:	90 e0       	ldi	r25, 0x00	; 0
     208:	08 95       	ret

0000020a <openedStart>:


State openedStart(DoorInfo *pInfo, ShortInt keyPressed)
{
     20a:	fc 01       	movw	r30, r24
	pInfo->openedStartTime.sec = CurrentTime.second;
     20c:	80 91 c6 02 	lds	r24, 0x02C6
     210:	84 83       	std	Z+4, r24	; 0x04
	pInfo->openedStartTime.tenMili = tenMiliSec;
     212:	80 91 a0 02 	lds	r24, 0x02A0
     216:	85 83       	std	Z+5, r24	; 0x05
	if (keyPressed == true) // 강제로 멈춤
     218:	61 30       	cpi	r22, 0x01	; 1
     21a:	19 f0       	breq	.+6      	; 0x222 <openedStart+0x18>
     21c:	22 e0       	ldi	r18, 0x02	; 2
     21e:	30 e0       	ldi	r19, 0x00	; 0
     220:	02 c0       	rjmp	.+4      	; 0x226 <openedStart+0x1c>
     222:	24 e0       	ldi	r18, 0x04	; 4
     224:	30 e0       	ldi	r19, 0x00	; 0
		return DOOR_STOPPED;
	else
		return DOOR_OPENED;
}
     226:	c9 01       	movw	r24, r18
     228:	08 95       	ret

0000022a <closeStart>:


State closeStart(DoorInfo *pInfo, ShortInt keyPressed)
{
     22a:	fc 01       	movw	r30, r24
	pInfo->closingStartTime.sec = CurrentTime.second;
     22c:	80 91 c6 02 	lds	r24, 0x02C6
     230:	86 83       	std	Z+6, r24	; 0x06
	pInfo->closingStartTime.tenMili = tenMiliSec;
     232:	80 91 a0 02 	lds	r24, 0x02A0
     236:	87 83       	std	Z+7, r24	; 0x07
	return DOOR_CLOSING;
}
     238:	83 e0       	ldi	r24, 0x03	; 3
     23a:	90 e0       	ldi	r25, 0x00	; 0
     23c:	08 95       	ret

0000023e <closingToNext>:


State closingToNext(ShortInt keyPressed)
{
	if (keyPressed == true) // 강제로 멈춤
     23e:	81 30       	cpi	r24, 0x01	; 1
     240:	19 f0       	breq	.+6      	; 0x248 <closingToNext+0xa>
     242:	20 e0       	ldi	r18, 0x00	; 0
     244:	30 e0       	ldi	r19, 0x00	; 0
     246:	02 c0       	rjmp	.+4      	; 0x24c <closingToNext+0xe>
     248:	24 e0       	ldi	r18, 0x04	; 4
     24a:	30 e0       	ldi	r19, 0x00	; 0
		return DOOR_STOPPED;
	else
		return DOOR_CLOSED;
}
     24c:	c9 01       	movw	r24, r18
     24e:	08 95       	ret

00000250 <checkAlarmTime>:
}


// alarmIndex는 Watch.c파일에 있음
bool checkAlarmTime(){
	if (CurrentTime.ampm == AlarmTimes[alarmIndex].ampm
     250:	80 91 a5 02 	lds	r24, 0x02A5
     254:	a8 2f       	mov	r26, r24
     256:	b0 e0       	ldi	r27, 0x00	; 0
     258:	fd 01       	movw	r30, r26
     25a:	23 e0       	ldi	r18, 0x03	; 3
     25c:	ee 0f       	add	r30, r30
     25e:	ff 1f       	adc	r31, r31
     260:	2a 95       	dec	r18
     262:	e1 f7       	brne	.-8      	; 0x25c <checkAlarmTime+0xc>
     264:	ee 54       	subi	r30, 0x4E	; 78
     266:	fd 4f       	sbci	r31, 0xFD	; 253
     268:	20 91 c8 02 	lds	r18, 0x02C8
     26c:	30 91 c9 02 	lds	r19, 0x02C9
     270:	86 81       	ldd	r24, Z+6	; 0x06
     272:	97 81       	ldd	r25, Z+7	; 0x07
     274:	28 17       	cp	r18, r24
     276:	39 07       	cpc	r19, r25
     278:	89 f5       	brne	.+98     	; 0x2dc <checkAlarmTime+0x8c>
     27a:	20 91 c2 02 	lds	r18, 0x02C2
     27e:	30 91 c3 02 	lds	r19, 0x02C3
     282:	80 81       	ld	r24, Z
     284:	91 81       	ldd	r25, Z+1	; 0x01
     286:	28 17       	cp	r18, r24
     288:	39 07       	cpc	r19, r25
     28a:	41 f5       	brne	.+80     	; 0x2dc <checkAlarmTime+0x8c>
     28c:	fd 01       	movw	r30, r26
     28e:	93 e0       	ldi	r25, 0x03	; 3
     290:	ee 0f       	add	r30, r30
     292:	ff 1f       	adc	r31, r31
     294:	9a 95       	dec	r25
     296:	e1 f7       	brne	.-8      	; 0x290 <checkAlarmTime+0x40>
     298:	ec 54       	subi	r30, 0x4C	; 76
     29a:	fd 4f       	sbci	r31, 0xFD	; 253
     29c:	20 91 c4 02 	lds	r18, 0x02C4
     2a0:	30 91 c5 02 	lds	r19, 0x02C5
     2a4:	80 81       	ld	r24, Z
     2a6:	91 81       	ldd	r25, Z+1	; 0x01
     2a8:	28 17       	cp	r18, r24
     2aa:	39 07       	cpc	r19, r25
     2ac:	b9 f4       	brne	.+46     	; 0x2dc <checkAlarmTime+0x8c>
     2ae:	40 e0       	ldi	r20, 0x00	; 0
     2b0:	83 e0       	ldi	r24, 0x03	; 3
     2b2:	aa 0f       	add	r26, r26
     2b4:	bb 1f       	adc	r27, r27
     2b6:	8a 95       	dec	r24
     2b8:	e1 f7       	brne	.-8      	; 0x2b2 <checkAlarmTime+0x62>
     2ba:	aa 54       	subi	r26, 0x4A	; 74
     2bc:	bd 4f       	sbci	r27, 0xFD	; 253
     2be:	20 91 c6 02 	lds	r18, 0x02C6
     2c2:	30 91 c7 02 	lds	r19, 0x02C7
     2c6:	8d 91       	ld	r24, X+
     2c8:	9c 91       	ld	r25, X
     2ca:	28 17       	cp	r18, r24
     2cc:	39 07       	cpc	r19, r25
     2ce:	09 f0       	breq	.+2      	; 0x2d2 <checkAlarmTime+0x82>
     2d0:	41 e0       	ldi	r20, 0x01	; 1
     2d2:	81 e0       	ldi	r24, 0x01	; 1
     2d4:	48 27       	eor	r20, r24
     2d6:	24 2f       	mov	r18, r20
     2d8:	30 e0       	ldi	r19, 0x00	; 0
     2da:	02 c0       	rjmp	.+4      	; 0x2e0 <checkAlarmTime+0x90>
     2dc:	20 e0       	ldi	r18, 0x00	; 0
     2de:	30 e0       	ldi	r19, 0x00	; 0
	{
		return true;
	}
	else
		return false;
}
     2e0:	c9 01       	movw	r24, r18
     2e2:	08 95       	ret

000002e4 <doorCloseControl>:
	return 0;
}

int doorCloseControl(DoorInfo *pInfo)
{
	StepMotorBackward();
     2e4:	0e 94 46 03 	call	0x68c	; 0x68c <StepMotorBackward>
	pInfo->openingCount--;
	if (pInfo->openingCount < 0)
		pInfo->openingCount = 0;
	*/
	return 0;
}
     2e8:	80 e0       	ldi	r24, 0x00	; 0
     2ea:	90 e0       	ldi	r25, 0x00	; 0
     2ec:	08 95       	ret

000002ee <doorStopControl>:
	return 0;
}

int doorStopControl(DoorInfo *pInfo)
{
	StepMotorStop();	
     2ee:	0e 94 67 03 	call	0x6ce	; 0x6ce <StepMotorStop>
	return 0;
}
     2f2:	80 e0       	ldi	r24, 0x00	; 0
     2f4:	90 e0       	ldi	r25, 0x00	; 0
     2f6:	08 95       	ret

000002f8 <doorOpenedControl>:
	return 0;
}

int doorOpenedControl(DoorInfo *pInfo)
{
	StepMotorStop();
     2f8:	0e 94 67 03 	call	0x6ce	; 0x6ce <StepMotorStop>
	pInfo->openedCount++;
	if (pInfo->openedCount > MAX_OPENED_COUNT)
		pInfo->openedCount = MAX_OPENED_COUNT;
	*/
	return 0;
}
     2fc:	80 e0       	ldi	r24, 0x00	; 0
     2fe:	90 e0       	ldi	r25, 0x00	; 0
     300:	08 95       	ret

00000302 <doorOpenControl>:
void StepMotorForward();
void StepMotorStop();

int doorOpenControl(DoorInfo *pInfo)
{
	StepMotorForward();
     302:	0e 94 27 03 	call	0x64e	; 0x64e <StepMotorForward>
	pInfo->openingCount++;
	if (pInfo->openingCount > MAX_OPENING_COUNT)
		pInfo->openingCount = MAX_OPENING_COUNT-1;
	*/
	return 0;
}
     306:	80 e0       	ldi	r24, 0x00	; 0
     308:	90 e0       	ldi	r25, 0x00	; 0
     30a:	08 95       	ret

0000030c <DoorControlForState>:
int doorOpenControl(DoorInfo *pInfo);
int doorOpenedControl(DoorInfo *pInfo);
int doorCloseControl(DoorInfo *pInfo);

int DoorControlForState(DoorInfo *pInfo)
{
     30c:	fc 01       	movw	r30, r24
	switch(pInfo->mode){
     30e:	01 90       	ld	r0, Z+
     310:	f0 81       	ld	r31, Z
     312:	e0 2d       	mov	r30, r0
     314:	e2 30       	cpi	r30, 0x02	; 2
     316:	f1 05       	cpc	r31, r1
     318:	41 f0       	breq	.+16     	; 0x32a <DoorControlForState+0x1e>
     31a:	e3 30       	cpi	r30, 0x03	; 3
     31c:	f1 05       	cpc	r31, r1
     31e:	41 f0       	breq	.+16     	; 0x330 <DoorControlForState+0x24>
     320:	31 97       	sbiw	r30, 0x01	; 1
     322:	41 f4       	brne	.+16     	; 0x334 <DoorControlForState+0x28>
void StepMotorForward();
void StepMotorStop();

int doorOpenControl(DoorInfo *pInfo)
{
	StepMotorForward();
     324:	0e 94 27 03 	call	0x64e	; 0x64e <StepMotorForward>
     328:	05 c0       	rjmp	.+10     	; 0x334 <DoorControlForState+0x28>
	return 0;
}

int doorOpenedControl(DoorInfo *pInfo)
{
	StepMotorStop();
     32a:	0e 94 67 03 	call	0x6ce	; 0x6ce <StepMotorStop>
     32e:	02 c0       	rjmp	.+4      	; 0x334 <DoorControlForState+0x28>
	return 0;
}

int doorCloseControl(DoorInfo *pInfo)
{
	StepMotorBackward();
     330:	0e 94 46 03 	call	0x68c	; 0x68c <StepMotorBackward>
	case DOOR_CLOSING:
		return doorCloseControl(pInfo);
	default:
		return 0;
	}
}
     334:	80 e0       	ldi	r24, 0x00	; 0
     336:	90 e0       	ldi	r25, 0x00	; 0
     338:	08 95       	ret

0000033a <checkDoorClosingTime>:
	else
		return false;

}
bool checkDoorClosingTime(SecondAndTenMili closingStartTime)
{
     33a:	0f 93       	push	r16
     33c:	1f 93       	push	r17
     33e:	09 2f       	mov	r16, r25
	ShortInt secDiff = CurrentTime.second - closingStartTime.sec;
     340:	10 91 c6 02 	lds	r17, 0x02C6
     344:	18 1b       	sub	r17, r24
	ShowNumber(secDiff, DEBUG_ROW, COL_SECOND);
     346:	81 2f       	mov	r24, r17
     348:	64 e0       	ldi	r22, 0x04	; 4
     34a:	4b e0       	ldi	r20, 0x0B	; 11
     34c:	0e 94 c9 09 	call	0x1392	; 0x1392 <ShowNumber>
	if ( 
     350:	15 30       	cpi	r17, 0x05	; 5
     352:	39 f4       	brne	.+14     	; 0x362 <checkDoorClosingTime+0x28>
     354:	80 91 a0 02 	lds	r24, 0x02A0
     358:	20 e0       	ldi	r18, 0x00	; 0
     35a:	30 e0       	ldi	r19, 0x00	; 0
     35c:	08 17       	cp	r16, r24
     35e:	38 f0       	brcs	.+14     	; 0x36e <checkDoorClosingTime+0x34>
     360:	04 c0       	rjmp	.+8      	; 0x36a <checkDoorClosingTime+0x30>
     362:	20 e0       	ldi	r18, 0x00	; 0
     364:	30 e0       	ldi	r19, 0x00	; 0
     366:	16 30       	cpi	r17, 0x06	; 6
     368:	10 f0       	brcs	.+4      	; 0x36e <checkDoorClosingTime+0x34>
     36a:	21 e0       	ldi	r18, 0x01	; 1
     36c:	30 e0       	ldi	r19, 0x00	; 0
     36e:	c9 01       	movw	r24, r18
		){
		return true;
		}
	else
		return false;
}
     370:	1f 91       	pop	r17
     372:	0f 91       	pop	r16
     374:	08 95       	ret

00000376 <checkDoorOpenedTime>:
	else
		return false;

}
bool checkDoorOpenedTime(SecondAndTenMili openedStartTime)
{	
     376:	0f 93       	push	r16
     378:	1f 93       	push	r17
     37a:	09 2f       	mov	r16, r25
	ShortInt secDiff = CurrentTime.second - openedStartTime.sec;
     37c:	10 91 c6 02 	lds	r17, 0x02C6
     380:	18 1b       	sub	r17, r24
	ShowNumber(secDiff, DEBUG_ROW, COL_MINUTE);
     382:	81 2f       	mov	r24, r17
     384:	64 e0       	ldi	r22, 0x04	; 4
     386:	48 e0       	ldi	r20, 0x08	; 8
     388:	0e 94 c9 09 	call	0x1392	; 0x1392 <ShowNumber>
	if ( (	secDiff == OPENED_SECOND &&
     38c:	15 30       	cpi	r17, 0x05	; 5
     38e:	39 f4       	brne	.+14     	; 0x39e <checkDoorOpenedTime+0x28>
     390:	80 91 a0 02 	lds	r24, 0x02A0
     394:	20 e0       	ldi	r18, 0x00	; 0
     396:	30 e0       	ldi	r19, 0x00	; 0
     398:	08 17       	cp	r16, r24
     39a:	38 f0       	brcs	.+14     	; 0x3aa <checkDoorOpenedTime+0x34>
     39c:	04 c0       	rjmp	.+8      	; 0x3a6 <checkDoorOpenedTime+0x30>
     39e:	20 e0       	ldi	r18, 0x00	; 0
     3a0:	30 e0       	ldi	r19, 0x00	; 0
     3a2:	16 30       	cpi	r17, 0x06	; 6
     3a4:	10 f0       	brcs	.+4      	; 0x3aa <checkDoorOpenedTime+0x34>
     3a6:	21 e0       	ldi	r18, 0x01	; 1
     3a8:	30 e0       	ldi	r19, 0x00	; 0
     3aa:	c9 01       	movw	r24, r18
		return true;
	}
	else
		return false;

}
     3ac:	1f 91       	pop	r17
     3ae:	0f 91       	pop	r16
     3b0:	08 95       	ret

000003b2 <checkDoorOpeningTime>:
#define	CLOSING_SECOND		5
*/

#include "ShowNumber.h"
bool checkDoorOpeningTime(SecondAndTenMili openingStartTime)
{
     3b2:	0f 93       	push	r16
     3b4:	1f 93       	push	r17
     3b6:	09 2f       	mov	r16, r25
	ShortInt secDiff = CurrentTime.second - openingStartTime.sec;
     3b8:	10 91 c6 02 	lds	r17, 0x02C6
     3bc:	18 1b       	sub	r17, r24
	ShowNumber(secDiff, DEBUG_ROW, COL_HOUR);
     3be:	81 2f       	mov	r24, r17
     3c0:	64 e0       	ldi	r22, 0x04	; 4
     3c2:	45 e0       	ldi	r20, 0x05	; 5
     3c4:	0e 94 c9 09 	call	0x1392	; 0x1392 <ShowNumber>
	if ( secDiff == OPENING_SECOND &&
     3c8:	15 30       	cpi	r17, 0x05	; 5
     3ca:	39 f4       	brne	.+14     	; 0x3da <checkDoorOpeningTime+0x28>
     3cc:	80 91 a0 02 	lds	r24, 0x02A0
     3d0:	20 e0       	ldi	r18, 0x00	; 0
     3d2:	30 e0       	ldi	r19, 0x00	; 0
     3d4:	08 17       	cp	r16, r24
     3d6:	38 f0       	brcs	.+14     	; 0x3e6 <checkDoorOpeningTime+0x34>
     3d8:	04 c0       	rjmp	.+8      	; 0x3e2 <checkDoorOpeningTime+0x30>
     3da:	20 e0       	ldi	r18, 0x00	; 0
     3dc:	30 e0       	ldi	r19, 0x00	; 0
     3de:	16 30       	cpi	r17, 0x06	; 6
     3e0:	10 f0       	brcs	.+4      	; 0x3e6 <checkDoorOpeningTime+0x34>
     3e2:	21 e0       	ldi	r18, 0x01	; 1
     3e4:	30 e0       	ldi	r19, 0x00	; 0
     3e6:	c9 01       	movw	r24, r18
		return true;
		}
	else
		return false;

}
     3e8:	1f 91       	pop	r17
     3ea:	0f 91       	pop	r16
     3ec:	08 95       	ret

000003ee <doorTimeExpired>:
bool checkAlarmTime();
bool checkDoorOpeningTime(SecondAndTenMili openingStartTime);
bool checkDoorOpenedTime(SecondAndTenMili openedStartTime);
bool checkDoorClosingTime(SecondAndTenMili closingStartTime);
bool doorTimeExpired(DoorInfo *pInfo)
{
     3ee:	fc 01       	movw	r30, r24
	switch(pInfo->mode)
     3f0:	80 81       	ld	r24, Z
     3f2:	91 81       	ldd	r25, Z+1	; 0x01
     3f4:	81 30       	cpi	r24, 0x01	; 1
     3f6:	91 05       	cpc	r25, r1
     3f8:	89 f0       	breq	.+34     	; 0x41c <doorTimeExpired+0x2e>
     3fa:	82 30       	cpi	r24, 0x02	; 2
     3fc:	91 05       	cpc	r25, r1
     3fe:	1c f4       	brge	.+6      	; 0x406 <doorTimeExpired+0x18>
     400:	89 2b       	or	r24, r25
     402:	49 f0       	breq	.+18     	; 0x416 <doorTimeExpired+0x28>
     404:	05 c0       	rjmp	.+10     	; 0x410 <doorTimeExpired+0x22>
     406:	82 30       	cpi	r24, 0x02	; 2
     408:	91 05       	cpc	r25, r1
     40a:	69 f0       	breq	.+26     	; 0x426 <doorTimeExpired+0x38>
     40c:	03 97       	sbiw	r24, 0x03	; 3
     40e:	81 f0       	breq	.+32     	; 0x430 <doorTimeExpired+0x42>
     410:	20 e0       	ldi	r18, 0x00	; 0
     412:	30 e0       	ldi	r19, 0x00	; 0
     414:	12 c0       	rjmp	.+36     	; 0x43a <doorTimeExpired+0x4c>
	{
	case DOOR_CLOSED:
		return checkAlarmTime();
     416:	0e 94 28 01 	call	0x250	; 0x250 <checkAlarmTime>
     41a:	0e c0       	rjmp	.+28     	; 0x438 <doorTimeExpired+0x4a>
	case DOOR_OPENING:
		return checkDoorOpeningTime(pInfo->openingStartTime);
     41c:	82 81       	ldd	r24, Z+2	; 0x02
     41e:	93 81       	ldd	r25, Z+3	; 0x03
     420:	0e 94 d9 01 	call	0x3b2	; 0x3b2 <checkDoorOpeningTime>
     424:	09 c0       	rjmp	.+18     	; 0x438 <doorTimeExpired+0x4a>
	case DOOR_OPENED:
		return checkDoorOpenedTime(pInfo->openedStartTime);
     426:	84 81       	ldd	r24, Z+4	; 0x04
     428:	95 81       	ldd	r25, Z+5	; 0x05
     42a:	0e 94 bb 01 	call	0x376	; 0x376 <checkDoorOpenedTime>
     42e:	04 c0       	rjmp	.+8      	; 0x438 <doorTimeExpired+0x4a>
	case DOOR_CLOSING:
		return checkDoorClosingTime(pInfo->closingStartTime);
     430:	86 81       	ldd	r24, Z+6	; 0x06
     432:	97 81       	ldd	r25, Z+7	; 0x07
     434:	0e 94 9d 01 	call	0x33a	; 0x33a <checkDoorClosingTime>
     438:	9c 01       	movw	r18, r24
	case DOOR_STOPPED:
		return false;
	default:
		return false;
	}
}
     43a:	c9 01       	movw	r24, r18
     43c:	08 95       	ret

0000043e <DoorControl>:



DoorInfo Door = {DOOR_CLOSED, 0, 0};
ShortInt DoorControl(bool keyPressed, ShortInt keyBuf)
{	
     43e:	cf 93       	push	r28
     440:	df 93       	push	r29
     442:	ec 01       	movw	r28, r24
	if ( (keyPressed && keyBuf == DOOR_BUTTON) ||
     444:	00 97       	sbiw	r24, 0x00	; 0
     446:	11 f0       	breq	.+4      	; 0x44c <DoorControl+0xe>
     448:	64 30       	cpi	r22, 0x04	; 4
     44a:	31 f0       	breq	.+12     	; 0x458 <DoorControl+0x1a>
     44c:	86 e9       	ldi	r24, 0x96	; 150
     44e:	92 e0       	ldi	r25, 0x02	; 2
     450:	0e 94 f7 01 	call	0x3ee	; 0x3ee <doorTimeExpired>
     454:	89 2b       	or	r24, r25
     456:	49 f0       	breq	.+18     	; 0x46a <DoorControl+0x2c>
		doorTimeExpired(&Door)	)
	{
		Door.mode = ToNextState(&Door, keyPressed);
     458:	86 e9       	ldi	r24, 0x96	; 150
     45a:	92 e0       	ldi	r25, 0x02	; 2
     45c:	6c 2f       	mov	r22, r28
     45e:	0e 94 be 00 	call	0x17c	; 0x17c <ToNextState>
     462:	90 93 97 02 	sts	0x0297, r25
     466:	80 93 96 02 	sts	0x0296, r24
	}
	return DoorControlForState(&Door);
     46a:	86 e9       	ldi	r24, 0x96	; 150
     46c:	92 e0       	ldi	r25, 0x02	; 2
     46e:	0e 94 86 01 	call	0x30c	; 0x30c <DoorControlForState>
}
     472:	df 91       	pop	r29
     474:	cf 91       	pop	r28
     476:	08 95       	ret

00000478 <KeyPadScanL0>:
	unsigned char key_data = 0;
	static unsigned char prev_key = 0;
	unsigned char cur_key;


	KEY_DATA = 0x0e ;
     478:	8e e0       	ldi	r24, 0x0E	; 14
     47a:	80 93 00 54 	sts	0x5400, r24
	key_data = KEY_SCAN ;
     47e:	80 91 00 58 	lds	r24, 0x5800

	cur_key = ( unsigned char )(key_data &0x0f) ;
	return cur_key;	
}
     482:	8f 70       	andi	r24, 0x0F	; 15
     484:	08 95       	ret

00000486 <KeyPadScanL1>:

unsigned char KeyPadScanL1(void)
{
	unsigned char key_data ;
	
	KEY_DATA = 0x0d ;
     486:	8d e0       	ldi	r24, 0x0D	; 13
     488:	80 93 00 54 	sts	0x5400, r24
	key_data = KEY_SCAN ;     // sw5 ~ sw8 scan
     48c:	80 91 00 58 	lds	r24, 0x5800
	
	return ( unsigned char )(key_data &0x0f) ; 
}
     490:	8f 70       	andi	r24, 0x0F	; 15
     492:	08 95       	ret

00000494 <KeyPadScanH0>:

unsigned char KeyPadScanH0(void) 
{
	unsigned char key_data ;
	
	KEY_DATA = 0x0b ;
     494:	8b e0       	ldi	r24, 0x0B	; 11
     496:	80 93 00 54 	sts	0x5400, r24
	key_data = KEY_SCAN ;    // sw9 ~ sw12 scan
     49a:	80 91 00 58 	lds	r24, 0x5800
	
	return ( unsigned char )(key_data&0x0f) ; 
}
     49e:	8f 70       	andi	r24, 0x0F	; 15
     4a0:	08 95       	ret

000004a2 <KeyPadScanH1>:

unsigned char KeyPadScanH1(void){
	unsigned char key_data ;
	
	KEY_DATA = 0x07 ;
     4a2:	87 e0       	ldi	r24, 0x07	; 7
     4a4:	80 93 00 54 	sts	0x5400, r24
	key_data = KEY_SCAN ;   // sw13 ~ sw16 scan
     4a8:	80 91 00 58 	lds	r24, 0x5800
	
	return ( unsigned char )(key_data&0x0f) ; 
}
     4ac:	8f 70       	andi	r24, 0x0F	; 15
     4ae:	08 95       	ret

000004b0 <KeyPadRead>:
	unsigned char key_data = 0;
	static unsigned char prev_key = 0;
	unsigned char cur_key;


	KEY_DATA = 0x0e ;
     4b0:	8e e0       	ldi	r24, 0x0E	; 14
     4b2:	80 93 00 54 	sts	0x5400, r24
	key_data = KEY_SCAN ;
     4b6:	90 91 00 58 	lds	r25, 0x5800

	cur_key = ( unsigned char )(key_data &0x0f) ;
     4ba:	9f 70       	andi	r25, 0x0F	; 15

unsigned char KeyPadScanL1(void)
{
	unsigned char key_data ;
	
	KEY_DATA = 0x0d ;
     4bc:	8d e0       	ldi	r24, 0x0D	; 13
     4be:	80 93 00 54 	sts	0x5400, r24
	key_data = KEY_SCAN ;     // sw5 ~ sw8 scan
     4c2:	40 91 00 58 	lds	r20, 0x5800

unsigned char KeyPadScanH0(void) 
{
	unsigned char key_data ;
	
	KEY_DATA = 0x0b ;
     4c6:	8b e0       	ldi	r24, 0x0B	; 11
     4c8:	80 93 00 54 	sts	0x5400, r24
	key_data = KEY_SCAN ;    // sw9 ~ sw12 scan
     4cc:	30 91 00 58 	lds	r19, 0x5800
}

unsigned char KeyPadScanH1(void){
	unsigned char key_data ;
	
	KEY_DATA = 0x07 ;
     4d0:	87 e0       	ldi	r24, 0x07	; 7
     4d2:	80 93 00 54 	sts	0x5400, r24
	key_data = KEY_SCAN ;   // sw13 ~ sw16 scan
     4d6:	20 91 00 58 	lds	r18, 0x5800
	k0 = KeyPadScanL0();
	k1 = KeyPadScanL1();
	k2 = KeyPadScanH0();
	k3 = KeyPadScanH1();
	
	if ( k0 != 0x0f )
     4da:	9f 30       	cpi	r25, 0x0F	; 15
     4dc:	b1 f0       	breq	.+44     	; 0x50a <KeyPadRead+0x5a>
	{
  		switch( k0 ) {                              
     4de:	9b 30       	cpi	r25, 0x0B	; 11
     4e0:	71 f0       	breq	.+28     	; 0x4fe <KeyPadRead+0x4e>
     4e2:	9c 30       	cpi	r25, 0x0C	; 12
     4e4:	20 f4       	brcc	.+8      	; 0x4ee <KeyPadRead+0x3e>
     4e6:	97 30       	cpi	r25, 0x07	; 7
     4e8:	09 f0       	breq	.+2      	; 0x4ec <KeyPadRead+0x3c>
     4ea:	59 c0       	rjmp	.+178    	; 0x59e <KeyPadRead+0xee>
     4ec:	06 c0       	rjmp	.+12     	; 0x4fa <KeyPadRead+0x4a>
     4ee:	9d 30       	cpi	r25, 0x0D	; 13
     4f0:	41 f0       	breq	.+16     	; 0x502 <KeyPadRead+0x52>
     4f2:	9e 30       	cpi	r25, 0x0E	; 14
     4f4:	09 f0       	breq	.+2      	; 0x4f8 <KeyPadRead+0x48>
     4f6:	53 c0       	rjmp	.+166    	; 0x59e <KeyPadRead+0xee>
     4f8:	06 c0       	rjmp	.+12     	; 0x506 <KeyPadRead+0x56>
     4fa:	81 e0       	ldi	r24, 0x01	; 1
     4fc:	08 95       	ret
     4fe:	82 e0       	ldi	r24, 0x02	; 2
     500:	08 95       	ret
      		case 0x07 :   
      			retval = 1 ;
      			break ;	           
      		case 0x0b : 
      			retval = 2 ; 
        		break ;
     502:	83 e0       	ldi	r24, 0x03	; 3
     504:	08 95       	ret
      		case 0x0d : 
        		retval = 3 ; 
        		break ;
     506:	84 e0       	ldi	r24, 0x04	; 4
     508:	08 95       	ret
	unsigned char key_data ;
	
	KEY_DATA = 0x0d ;
	key_data = KEY_SCAN ;     // sw5 ~ sw8 scan
	
	return ( unsigned char )(key_data &0x0f) ; 
     50a:	84 2f       	mov	r24, r20
     50c:	8f 70       	andi	r24, 0x0F	; 15
      			retval = 4 ;
        		break ;
      		default :
				break ;
   		}
  	} else if ( k1 != 0x0f )
     50e:	8f 30       	cpi	r24, 0x0F	; 15
     510:	a9 f0       	breq	.+42     	; 0x53c <KeyPadRead+0x8c>
	{
  		switch( k1 ){                              
     512:	8b 30       	cpi	r24, 0x0B	; 11
     514:	69 f0       	breq	.+26     	; 0x530 <KeyPadRead+0x80>
     516:	8c 30       	cpi	r24, 0x0C	; 12
     518:	20 f4       	brcc	.+8      	; 0x522 <KeyPadRead+0x72>
     51a:	87 30       	cpi	r24, 0x07	; 7
     51c:	09 f0       	breq	.+2      	; 0x520 <KeyPadRead+0x70>
     51e:	3f c0       	rjmp	.+126    	; 0x59e <KeyPadRead+0xee>
     520:	05 c0       	rjmp	.+10     	; 0x52c <KeyPadRead+0x7c>
     522:	8d 30       	cpi	r24, 0x0D	; 13
     524:	39 f0       	breq	.+14     	; 0x534 <KeyPadRead+0x84>
     526:	8e 30       	cpi	r24, 0x0E	; 14
     528:	d1 f5       	brne	.+116    	; 0x59e <KeyPadRead+0xee>
     52a:	06 c0       	rjmp	.+12     	; 0x538 <KeyPadRead+0x88>
     52c:	85 e0       	ldi	r24, 0x05	; 5
     52e:	08 95       	ret
     530:	86 e0       	ldi	r24, 0x06	; 6
     532:	08 95       	ret
      		case 0x07 :   
      			retval = 5 ;
      			break ;	           
      		case 0x0b : 
      			retval = 6 ; 
        		break ;
     534:	87 e0       	ldi	r24, 0x07	; 7
     536:	08 95       	ret
      		case 0x0d : 
        		retval = 7 ; 
        		break ;
     538:	88 e0       	ldi	r24, 0x08	; 8
     53a:	08 95       	ret
	unsigned char key_data ;
	
	KEY_DATA = 0x0b ;
	key_data = KEY_SCAN ;    // sw9 ~ sw12 scan
	
	return ( unsigned char )(key_data&0x0f) ; 
     53c:	83 2f       	mov	r24, r19
     53e:	8f 70       	andi	r24, 0x0F	; 15
      			retval = 8 ;
        		break ;
      		default :
				break ;
   		}
  	} else if ( k2 != 0x0f ) {
     540:	8f 30       	cpi	r24, 0x0F	; 15
     542:	a1 f0       	breq	.+40     	; 0x56c <KeyPadRead+0xbc>
  		switch( k2 ){                              
     544:	8b 30       	cpi	r24, 0x0B	; 11
     546:	61 f0       	breq	.+24     	; 0x560 <KeyPadRead+0xb0>
     548:	8c 30       	cpi	r24, 0x0C	; 12
     54a:	18 f4       	brcc	.+6      	; 0x552 <KeyPadRead+0xa2>
     54c:	87 30       	cpi	r24, 0x07	; 7
     54e:	39 f5       	brne	.+78     	; 0x59e <KeyPadRead+0xee>
     550:	05 c0       	rjmp	.+10     	; 0x55c <KeyPadRead+0xac>
     552:	8d 30       	cpi	r24, 0x0D	; 13
     554:	39 f0       	breq	.+14     	; 0x564 <KeyPadRead+0xb4>
     556:	8e 30       	cpi	r24, 0x0E	; 14
     558:	11 f5       	brne	.+68     	; 0x59e <KeyPadRead+0xee>
     55a:	06 c0       	rjmp	.+12     	; 0x568 <KeyPadRead+0xb8>
     55c:	89 e0       	ldi	r24, 0x09	; 9
     55e:	08 95       	ret
     560:	8a e0       	ldi	r24, 0x0A	; 10
     562:	08 95       	ret
      		case 0x07 :   
      			retval = 9 ;
      			break ;	           
      		case 0x0b : 
      			retval = 10 ; 
        		break ;
     564:	8b e0       	ldi	r24, 0x0B	; 11
     566:	08 95       	ret
      		case 0x0d : 
        		retval = 11 ; 
        		break ;
     568:	8c e0       	ldi	r24, 0x0C	; 12
     56a:	08 95       	ret
	unsigned char key_data ;
	
	KEY_DATA = 0x07 ;
	key_data = KEY_SCAN ;   // sw13 ~ sw16 scan
	
	return ( unsigned char )(key_data&0x0f) ; 
     56c:	82 2f       	mov	r24, r18
     56e:	8f 70       	andi	r24, 0x0F	; 15
      			retval = 12 ;
        		break ;
      		default :
				break ;
   		}
	} else if ( k3 != 0x0f ) {
     570:	8f 30       	cpi	r24, 0x0F	; 15
     572:	11 f4       	brne	.+4      	; 0x578 <KeyPadRead+0xc8>
     574:	80 e0       	ldi	r24, 0x00	; 0
     576:	08 95       	ret
  		switch( k3 ) {                              
     578:	8b 30       	cpi	r24, 0x0B	; 11
     57a:	61 f0       	breq	.+24     	; 0x594 <KeyPadRead+0xe4>
     57c:	8c 30       	cpi	r24, 0x0C	; 12
     57e:	18 f4       	brcc	.+6      	; 0x586 <KeyPadRead+0xd6>
     580:	87 30       	cpi	r24, 0x07	; 7
     582:	69 f4       	brne	.+26     	; 0x59e <KeyPadRead+0xee>
     584:	05 c0       	rjmp	.+10     	; 0x590 <KeyPadRead+0xe0>
     586:	8d 30       	cpi	r24, 0x0D	; 13
     588:	39 f0       	breq	.+14     	; 0x598 <KeyPadRead+0xe8>
     58a:	8e 30       	cpi	r24, 0x0E	; 14
     58c:	41 f4       	brne	.+16     	; 0x59e <KeyPadRead+0xee>
     58e:	06 c0       	rjmp	.+12     	; 0x59c <KeyPadRead+0xec>
     590:	8d e0       	ldi	r24, 0x0D	; 13
     592:	08 95       	ret
     594:	8e e0       	ldi	r24, 0x0E	; 14
     596:	08 95       	ret
      		case 0x07 :   
      			retval = 13 ;
      			break ;	           
      		case 0x0b : 
      			retval = 14 ; 
        		break ;
     598:	8f e0       	ldi	r24, 0x0F	; 15
     59a:	08 95       	ret
      		case 0x0d : 
        		retval = 15 ; 
        		break ;
     59c:	80 e1       	ldi	r24, 0x10	; 16
				break ;
   		}
	} else return 0 ;

  	return retval;
}
     59e:	08 95       	ret

000005a0 <checkKeyPressed>:
}



bool checkKeyPressed(ShortInt keyBuf)
{
     5a0:	28 2f       	mov	r18, r24
	bool keyPressed = false;	
	static ShortInt prevKeyBuf = 0;	
	if ( keyBuf == 0 ||
     5a2:	88 23       	and	r24, r24
     5a4:	11 f4       	brne	.+4      	; 0x5aa <checkKeyPressed+0xa>
     5a6:	90 e0       	ldi	r25, 0x00	; 0
     5a8:	05 c0       	rjmp	.+10     	; 0x5b4 <checkKeyPressed+0x14>
     5aa:	90 e0       	ldi	r25, 0x00	; 0
     5ac:	80 91 a1 02 	lds	r24, 0x02A1
     5b0:	28 13       	cpse	r18, r24
     5b2:	91 e0       	ldi	r25, 0x01	; 1
		keyPressed = false;	
	else
	{		
		keyPressed = true;
	}
	prevKeyBuf = keyBuf;
     5b4:	20 93 a1 02 	sts	0x02A1, r18
	return keyPressed;
}
     5b8:	89 2f       	mov	r24, r25
     5ba:	08 95       	ret

000005bc <__vector_16>:

void watchISR();
volatile uint8_t StepMotorCnt = 0, ExtGraphLcdCnt = 0, tenMiliSec = 0;
// 10ms留??諛?????명꽣?쏀?
ISR(TIMER0_OVF_vect)				// OC0A interrupt function
{	
     5bc:	1f 92       	push	r1
     5be:	0f 92       	push	r0
     5c0:	0f b6       	in	r0, 0x3f	; 63
     5c2:	0f 92       	push	r0
     5c4:	11 24       	eor	r1, r1
     5c6:	8f 93       	push	r24
	StepMotorCnt++;
     5c8:	80 91 9e 02 	lds	r24, 0x029E
     5cc:	8f 5f       	subi	r24, 0xFF	; 255
     5ce:	80 93 9e 02 	sts	0x029E, r24
	watchISR();
}

void watchISR()
{
	TCNT0 = 178;
     5d2:	82 eb       	ldi	r24, 0xB2	; 178
     5d4:	82 bf       	out	0x32, r24	; 50
	// 이거 꼭 해야함
	ExtGraphLcdCnt++; 	
     5d6:	80 91 9f 02 	lds	r24, 0x029F
     5da:	8f 5f       	subi	r24, 0xFF	; 255
     5dc:	80 93 9f 02 	sts	0x029F, r24
	// 이상하게 2초에 한번 시간이 올라서 이렇게함.
	// 다른 키트에서는 제대로 됨
	tenMiliSec++;
     5e0:	80 91 a0 02 	lds	r24, 0x02A0
     5e4:	8f 5f       	subi	r24, 0xFF	; 255
     5e6:	80 93 a0 02 	sts	0x02A0, r24
// 10ms留??諛?????명꽣?쏀?
ISR(TIMER0_OVF_vect)				// OC0A interrupt function
{	
	StepMotorCnt++;
	watchISR();
}
     5ea:	8f 91       	pop	r24
     5ec:	0f 90       	pop	r0
     5ee:	0f be       	out	0x3f, r0	; 63
     5f0:	0f 90       	pop	r0
     5f2:	1f 90       	pop	r1
     5f4:	18 95       	reti

000005f6 <watchISR>:

void watchISR()
{
	TCNT0 = 178;
     5f6:	82 eb       	ldi	r24, 0xB2	; 178
     5f8:	82 bf       	out	0x32, r24	; 50
	// 이거 꼭 해야함
	ExtGraphLcdCnt++; 	
     5fa:	80 91 9f 02 	lds	r24, 0x029F
     5fe:	8f 5f       	subi	r24, 0xFF	; 255
     600:	80 93 9f 02 	sts	0x029F, r24
	// 이상하게 2초에 한번 시간이 올라서 이렇게함.
	// 다른 키트에서는 제대로 됨
	tenMiliSec++;
     604:	80 91 a0 02 	lds	r24, 0x02A0
     608:	8f 5f       	subi	r24, 0xFF	; 255
     60a:	80 93 a0 02 	sts	0x02A0, r24
}
     60e:	08 95       	ret

00000610 <mainInLoop>:


#include "AlarmDiff.h"
extern AlarmDiff d1, d2;
ShortInt mainInLoop()
{			
     610:	1f 93       	push	r17

	ShortInt keyBuf;
	bool keyPressed;
	keyBuf = KeyPadRead(); // 키 패드의 값을 입력 받음
     612:	0e 94 58 02 	call	0x4b0	; 0x4b0 <KeyPadRead>
     616:	18 2f       	mov	r17, r24
	ShowNumber(Door.closingStartTime.sec, DEBUG_ROW, COL_SECOND);
	ShowNumber(keyBuf, DEBUG_ROW2, COL_MINUTE);
	ShowNumber(Door.mode, DEBUG_ROW2, COL_SECOND);
	*/
	
	UpdateWatch();	// 여기서만 시간이 이동함
     618:	0e 94 4f 05 	call	0xa9e	; 0xa9e <UpdateWatch>

bool checkKeyPressed(ShortInt keyBuf)
{
	bool keyPressed = false;	
	static ShortInt prevKeyBuf = 0;	
	if ( keyBuf == 0 ||
     61c:	11 23       	and	r17, r17
     61e:	11 f4       	brne	.+4      	; 0x624 <mainInLoop+0x14>
     620:	90 e0       	ldi	r25, 0x00	; 0
     622:	05 c0       	rjmp	.+10     	; 0x62e <mainInLoop+0x1e>
     624:	90 e0       	ldi	r25, 0x00	; 0
     626:	80 91 a1 02 	lds	r24, 0x02A1
     62a:	18 13       	cpse	r17, r24
     62c:	91 e0       	ldi	r25, 0x01	; 1
		keyPressed = false;	
	else
	{		
		keyPressed = true;
	}
	prevKeyBuf = keyBuf;
     62e:	10 93 a1 02 	sts	0x02A1, r17
	UpdateWatch();	// 여기서만 시간이 이동함
	
	keyPressed = checkKeyPressed(keyBuf);
	//keyPressed = false;

	DoorControl(keyPressed, keyBuf);
     632:	89 2f       	mov	r24, r25
     634:	61 2f       	mov	r22, r17
     636:	0e 94 1f 02 	call	0x43e	; 0x43e <DoorControl>

//	WatchSetControl(keyPressed, keyBuf);
}
     63a:	1f 91       	pop	r17
     63c:	08 95       	ret

0000063e <main>:
typedef	unsigned char	ShortInt;
#endif
ShortInt mainInLoop();
int main(void)
{
  	Platform_Init(); // AVR 초기화
     63e:	0e 94 b3 05 	call	0xb66	; 0xb66 <Platform_Init>
	StartWatch();
     642:	0e 94 cc 04 	call	0x998	; 0x998 <StartWatch>
	sei();     // 인터럽트 인에이블
     646:	78 94       	sei
	while(1){
		mainInLoop();		
     648:	0e 94 08 03 	call	0x610	; 0x610 <mainInLoop>
     64c:	fd cf       	rjmp	.-6      	; 0x648 <main+0xa>

0000064e <StepMotorForward>:
int count_flag=0;
extern volatile uint8_t StepMotorCnt;
// 모터 전진 함수
void StepMotorForward( void ) 
{	
	count_flag = 1 ;
     64e:	81 e0       	ldi	r24, 0x01	; 1
     650:	90 e0       	ldi	r25, 0x00	; 0
     652:	90 93 a3 02 	sts	0x02A3, r25
     656:	80 93 a2 02 	sts	0x02A2, r24
	// half step 즉 1이 한 개
	// 1이 두개면 Full step
	switch(StepMotorCnt) {
     65a:	80 91 9e 02 	lds	r24, 0x029E
     65e:	82 30       	cpi	r24, 0x02	; 2
     660:	51 f0       	breq	.+20     	; 0x676 <StepMotorForward+0x28>
     662:	83 30       	cpi	r24, 0x03	; 3
     664:	18 f4       	brcc	.+6      	; 0x66c <StepMotorForward+0x1e>
     666:	81 30       	cpi	r24, 0x01	; 1
     668:	71 f4       	brne	.+28     	; 0x686 <StepMotorForward+0x38>
     66a:	0a c0       	rjmp	.+20     	; 0x680 <StepMotorForward+0x32>
     66c:	83 30       	cpi	r24, 0x03	; 3
     66e:	29 f0       	breq	.+10     	; 0x67a <StepMotorForward+0x2c>
     670:	84 30       	cpi	r24, 0x04	; 4
     672:	49 f4       	brne	.+18     	; 0x686 <StepMotorForward+0x38>
     674:	04 c0       	rjmp	.+8      	; 0x67e <StepMotorForward+0x30>
		case 1 :
			STEP_MOTOR_CS = 0x01;
			//STEP_MOTOR_CS = 0x05;
			break;
		case 2 :
			STEP_MOTOR_CS = 0x04;
     676:	84 e0       	ldi	r24, 0x04	; 4
     678:	03 c0       	rjmp	.+6      	; 0x680 <StepMotorForward+0x32>
			//STEP_MOTOR_CS = 0x06;
			break;
		case 3 :
			STEP_MOTOR_CS = 0x02;
     67a:	82 e0       	ldi	r24, 0x02	; 2
     67c:	01 c0       	rjmp	.+2      	; 0x680 <StepMotorForward+0x32>
			//STEP_MOTOR_CS = 0x0A;
			break;
		case 4 :
			STEP_MOTOR_CS = 0x08;
     67e:	88 e0       	ldi	r24, 0x08	; 8
     680:	80 93 00 40 	sts	0x4000, r24
     684:	08 95       	ret
			//STEP_MOTOR_CS = 0x09;
			break;
		default : 
			StepMotorCnt=0;
     686:	10 92 9e 02 	sts	0x029E, r1
     68a:	08 95       	ret

0000068c <StepMotorBackward>:
}

// 모터 후진 함수
void StepMotorBackward( void ) 
{	
	count_flag = 1 ;
     68c:	81 e0       	ldi	r24, 0x01	; 1
     68e:	90 e0       	ldi	r25, 0x00	; 0
     690:	90 93 a3 02 	sts	0x02A3, r25
     694:	80 93 a2 02 	sts	0x02A2, r24
	switch(StepMotorCnt) {
     698:	80 91 9e 02 	lds	r24, 0x029E
     69c:	82 30       	cpi	r24, 0x02	; 2
     69e:	61 f0       	breq	.+24     	; 0x6b8 <StepMotorBackward+0x2c>
     6a0:	83 30       	cpi	r24, 0x03	; 3
     6a2:	18 f4       	brcc	.+6      	; 0x6aa <StepMotorBackward+0x1e>
     6a4:	81 30       	cpi	r24, 0x01	; 1
     6a6:	81 f4       	brne	.+32     	; 0x6c8 <StepMotorBackward+0x3c>
     6a8:	05 c0       	rjmp	.+10     	; 0x6b4 <StepMotorBackward+0x28>
     6aa:	83 30       	cpi	r24, 0x03	; 3
     6ac:	39 f0       	breq	.+14     	; 0x6bc <StepMotorBackward+0x30>
     6ae:	84 30       	cpi	r24, 0x04	; 4
     6b0:	59 f4       	brne	.+22     	; 0x6c8 <StepMotorBackward+0x3c>
     6b2:	06 c0       	rjmp	.+12     	; 0x6c0 <StepMotorBackward+0x34>
		case 1 :
			STEP_MOTOR_CS = 0x04;
     6b4:	84 e0       	ldi	r24, 0x04	; 4
     6b6:	05 c0       	rjmp	.+10     	; 0x6c2 <StepMotorBackward+0x36>
			//STEP_MOTOR_CS = 0x06;
			break;
		case 2 :
			STEP_MOTOR_CS = 0x01;
     6b8:	81 e0       	ldi	r24, 0x01	; 1
     6ba:	03 c0       	rjmp	.+6      	; 0x6c2 <StepMotorBackward+0x36>
			//STEP_MOTOR_CS = 0x05;
			break;
		case 3 :
			STEP_MOTOR_CS = 0x08;
     6bc:	88 e0       	ldi	r24, 0x08	; 8
     6be:	01 c0       	rjmp	.+2      	; 0x6c2 <StepMotorBackward+0x36>
			//STEP_MOTOR_CS = 0x09;
			break;
		case 4 :
			STEP_MOTOR_CS = 0x02;
     6c0:	82 e0       	ldi	r24, 0x02	; 2
     6c2:	80 93 00 40 	sts	0x4000, r24
     6c6:	08 95       	ret
			//STEP_MOTOR_CS = 0x0A;
			break;
		default : 
			StepMotorCnt=0;
     6c8:	10 92 9e 02 	sts	0x029E, r1
     6cc:	08 95       	ret

000006ce <StepMotorStop>:

}


void StepMotorStop ( void ) {
	count_flag = 0 ;
     6ce:	10 92 a3 02 	sts	0x02A3, r1
     6d2:	10 92 a2 02 	sts	0x02A2, r1
}
     6d6:	08 95       	ret

000006d8 <getAlarmDiff>:



#include "..\ShortInt.h"
void getAlarmDiff(AlarmDiff *pd, ShortInt Index)
{	
     6d8:	dc 01       	movw	r26, r24
	pd->hour = 0;
     6da:	11 96       	adiw	r26, 0x01	; 1
     6dc:	1c 92       	st	X, r1
     6de:	1e 92       	st	-X, r1
	pd->minute = 0;
     6e0:	13 96       	adiw	r26, 0x03	; 3
     6e2:	1c 92       	st	X, r1
     6e4:	1e 92       	st	-X, r1
     6e6:	12 97       	sbiw	r26, 0x02	; 2

	pd->second = AlarmTimes[Index].second - CurrentTime.second;
     6e8:	70 e0       	ldi	r23, 0x00	; 0
     6ea:	fb 01       	movw	r30, r22
     6ec:	93 e0       	ldi	r25, 0x03	; 3
     6ee:	ee 0f       	add	r30, r30
     6f0:	ff 1f       	adc	r31, r31
     6f2:	9a 95       	dec	r25
     6f4:	e1 f7       	brne	.-8      	; 0x6ee <getAlarmDiff+0x16>
     6f6:	ea 54       	subi	r30, 0x4A	; 74
     6f8:	fd 4f       	sbci	r31, 0xFD	; 253
     6fa:	01 90       	ld	r0, Z+
     6fc:	f0 81       	ld	r31, Z
     6fe:	e0 2d       	mov	r30, r0
     700:	80 91 c6 02 	lds	r24, 0x02C6
     704:	90 91 c7 02 	lds	r25, 0x02C7
     708:	e8 1b       	sub	r30, r24
     70a:	f9 0b       	sbc	r31, r25
     70c:	15 96       	adiw	r26, 0x05	; 5
     70e:	fc 93       	st	X, r31
     710:	ee 93       	st	-X, r30
     712:	14 97       	sbiw	r26, 0x04	; 4
	if (pd->second < 0 ){
     714:	f7 ff       	sbrs	r31, 7
     716:	0b c0       	rjmp	.+22     	; 0x72e <getAlarmDiff+0x56>
		pd->second+=60;
     718:	fc 96       	adiw	r30, 0x3c	; 60
     71a:	15 96       	adiw	r26, 0x05	; 5
     71c:	fc 93       	st	X, r31
     71e:	ee 93       	st	-X, r30
     720:	14 97       	sbiw	r26, 0x04	; 4
		pd->minute-=1;
     722:	8f ef       	ldi	r24, 0xFF	; 255
     724:	9f ef       	ldi	r25, 0xFF	; 255
     726:	13 96       	adiw	r26, 0x03	; 3
     728:	9c 93       	st	X, r25
     72a:	8e 93       	st	-X, r24
     72c:	12 97       	sbiw	r26, 0x02	; 2
	}

	pd->minute += AlarmTimes[Index].minute - CurrentTime.minute;
     72e:	fb 01       	movw	r30, r22
     730:	83 e0       	ldi	r24, 0x03	; 3
     732:	ee 0f       	add	r30, r30
     734:	ff 1f       	adc	r31, r31
     736:	8a 95       	dec	r24
     738:	e1 f7       	brne	.-8      	; 0x732 <getAlarmDiff+0x5a>
     73a:	ec 54       	subi	r30, 0x4C	; 76
     73c:	fd 4f       	sbci	r31, 0xFD	; 253
     73e:	01 90       	ld	r0, Z+
     740:	f0 81       	ld	r31, Z
     742:	e0 2d       	mov	r30, r0
     744:	12 96       	adiw	r26, 0x02	; 2
     746:	8d 91       	ld	r24, X+
     748:	9c 91       	ld	r25, X
     74a:	13 97       	sbiw	r26, 0x03	; 3
     74c:	e8 0f       	add	r30, r24
     74e:	f9 1f       	adc	r31, r25
     750:	80 91 c4 02 	lds	r24, 0x02C4
     754:	90 91 c5 02 	lds	r25, 0x02C5
     758:	e8 1b       	sub	r30, r24
     75a:	f9 0b       	sbc	r31, r25
     75c:	13 96       	adiw	r26, 0x03	; 3
     75e:	fc 93       	st	X, r31
     760:	ee 93       	st	-X, r30
     762:	12 97       	sbiw	r26, 0x02	; 2
	if (pd->minute < 0 ){
     764:	f7 ff       	sbrs	r31, 7
     766:	0c c0       	rjmp	.+24     	; 0x780 <getAlarmDiff+0xa8>
		pd->minute+=60;
     768:	fc 96       	adiw	r30, 0x3c	; 60
     76a:	13 96       	adiw	r26, 0x03	; 3
     76c:	fc 93       	st	X, r31
     76e:	ee 93       	st	-X, r30
     770:	12 97       	sbiw	r26, 0x02	; 2
		pd->hour-=1;
     772:	8d 91       	ld	r24, X+
     774:	9c 91       	ld	r25, X
     776:	11 97       	sbiw	r26, 0x01	; 1
     778:	01 97       	sbiw	r24, 0x01	; 1
     77a:	11 96       	adiw	r26, 0x01	; 1
     77c:	9c 93       	st	X, r25
     77e:	8e 93       	st	-X, r24
	}

	pd->hour += AlarmTimes[Index].hour - CurrentTime.hour
     780:	fb 01       	movw	r30, r22
     782:	73 e0       	ldi	r23, 0x03	; 3
     784:	ee 0f       	add	r30, r30
     786:	ff 1f       	adc	r31, r31
     788:	7a 95       	dec	r23
     78a:	e1 f7       	brne	.-8      	; 0x784 <getAlarmDiff+0xac>
     78c:	ee 54       	subi	r30, 0x4E	; 78
     78e:	fd 4f       	sbci	r31, 0xFD	; 253
     790:	40 81       	ld	r20, Z
     792:	51 81       	ldd	r21, Z+1	; 0x01
     794:	8d 91       	ld	r24, X+
     796:	9c 91       	ld	r25, X
     798:	11 97       	sbiw	r26, 0x01	; 1
     79a:	48 0f       	add	r20, r24
     79c:	59 1f       	adc	r21, r25
     79e:	80 91 c2 02 	lds	r24, 0x02C2
     7a2:	90 91 c3 02 	lds	r25, 0x02C3
     7a6:	48 1b       	sub	r20, r24
     7a8:	59 0b       	sbc	r21, r25
     7aa:	26 81       	ldd	r18, Z+6	; 0x06
     7ac:	37 81       	ldd	r19, Z+7	; 0x07
     7ae:	80 91 c8 02 	lds	r24, 0x02C8
     7b2:	90 91 c9 02 	lds	r25, 0x02C9
     7b6:	28 1b       	sub	r18, r24
     7b8:	39 0b       	sbc	r19, r25
     7ba:	c9 01       	movw	r24, r18
     7bc:	88 0f       	add	r24, r24
     7be:	99 1f       	adc	r25, r25
     7c0:	82 0f       	add	r24, r18
     7c2:	93 1f       	adc	r25, r19
     7c4:	88 0f       	add	r24, r24
     7c6:	99 1f       	adc	r25, r25
     7c8:	88 0f       	add	r24, r24
     7ca:	99 1f       	adc	r25, r25
     7cc:	48 0f       	add	r20, r24
     7ce:	59 1f       	adc	r21, r25
     7d0:	11 96       	adiw	r26, 0x01	; 1
     7d2:	5c 93       	st	X, r21
     7d4:	4e 93       	st	-X, r20
			+ (AlarmTimes[Index].ampm - CurrentTime.ampm)*12;
	if (pd->hour < 0)
     7d6:	57 ff       	sbrs	r21, 7
     7d8:	04 c0       	rjmp	.+8      	; 0x7e2 <getAlarmDiff+0x10a>
		pd->hour+= 24;
     7da:	48 5e       	subi	r20, 0xE8	; 232
     7dc:	5f 4f       	sbci	r21, 0xFF	; 255
     7de:	4d 93       	st	X+, r20
     7e0:	5c 93       	st	X, r21
     7e2:	08 95       	ret

000007e4 <getMinDiff>:
}



AlarmDiff* getMinDiff(AlarmDiff *p1, AlarmDiff *p2)
{
     7e4:	fc 01       	movw	r30, r24
     7e6:	db 01       	movw	r26, r22
	if ( p1->hour < p2->hour )
     7e8:	20 81       	ld	r18, Z
     7ea:	31 81       	ldd	r19, Z+1	; 0x01
     7ec:	8d 91       	ld	r24, X+
     7ee:	9c 91       	ld	r25, X
     7f0:	11 97       	sbiw	r26, 0x01	; 1
     7f2:	28 17       	cp	r18, r24
     7f4:	39 07       	cpc	r19, r25
     7f6:	cc f0       	brlt	.+50     	; 0x82a <getMinDiff+0x46>
		return p1;

	else if ( p1->hour > p2->hour )
     7f8:	82 17       	cp	r24, r18
     7fa:	93 07       	cpc	r25, r19
     7fc:	ac f0       	brlt	.+42     	; 0x828 <getMinDiff+0x44>
		return p2;

	else if ( p1->minute < p2->minute )
     7fe:	22 81       	ldd	r18, Z+2	; 0x02
     800:	33 81       	ldd	r19, Z+3	; 0x03
     802:	12 96       	adiw	r26, 0x02	; 2
     804:	8d 91       	ld	r24, X+
     806:	9c 91       	ld	r25, X
     808:	13 97       	sbiw	r26, 0x03	; 3
     80a:	28 17       	cp	r18, r24
     80c:	39 07       	cpc	r19, r25
     80e:	6c f0       	brlt	.+26     	; 0x82a <getMinDiff+0x46>
		return p1;

	else if ( p1->minute > p2->minute )
     810:	82 17       	cp	r24, r18
     812:	93 07       	cpc	r25, r19
     814:	4c f0       	brlt	.+18     	; 0x828 <getMinDiff+0x44>
		return p2;

	else if ( p1->second < p2->second )
     816:	24 81       	ldd	r18, Z+4	; 0x04
     818:	35 81       	ldd	r19, Z+5	; 0x05
     81a:	14 96       	adiw	r26, 0x04	; 4
     81c:	8d 91       	ld	r24, X+
     81e:	9c 91       	ld	r25, X
     820:	15 97       	sbiw	r26, 0x05	; 5
     822:	28 17       	cp	r18, r24
     824:	39 07       	cpc	r19, r25
     826:	0c f0       	brlt	.+2      	; 0x82a <getMinDiff+0x46>
     828:	fd 01       	movw	r30, r26
		return p1;

	else 
		return p2;

}
     82a:	cf 01       	movw	r24, r30
     82c:	08 95       	ret

0000082e <ShowReminderText>:

extern const char font_Boon[8];
extern const char font_Nam[8];
extern const char font_Um[8];
void ShowReminderText(){
	GraphLcdCharactorSet(REMINDER_ROW,COL_HOUR+2,font_Si);
     82e:	82 e0       	ldi	r24, 0x02	; 2
     830:	67 e0       	ldi	r22, 0x07	; 7
     832:	4e e1       	ldi	r20, 0x1E	; 30
     834:	51 e0       	ldi	r21, 0x01	; 1
     836:	0e 94 04 07 	call	0xe08	; 0xe08 <GraphLcdCharactorSet>
	GraphLcdCharactorSet(REMINDER_ROW,COL_HOUR+3,font_Gan);
     83a:	82 e0       	ldi	r24, 0x02	; 2
     83c:	68 e0       	ldi	r22, 0x08	; 8
     83e:	46 e5       	ldi	r20, 0x56	; 86
     840:	51 e0       	ldi	r21, 0x01	; 1
     842:	0e 94 04 07 	call	0xe08	; 0xe08 <GraphLcdCharactorSet>

	GraphLcdCharactorSet(REMINDER_ROW,COL_HOUR+6,font_Boon);
     846:	82 e0       	ldi	r24, 0x02	; 2
     848:	6b e0       	ldi	r22, 0x0B	; 11
     84a:	4e e2       	ldi	r20, 0x2E	; 46
     84c:	51 e0       	ldi	r21, 0x01	; 1
     84e:	0e 94 04 07 	call	0xe08	; 0xe08 <GraphLcdCharactorSet>
	GraphLcdCharactorSet(REMINDER_ROW,COL_HOUR+8,font_Nam);
     852:	82 e0       	ldi	r24, 0x02	; 2
     854:	6d e0       	ldi	r22, 0x0D	; 13
     856:	4e e5       	ldi	r20, 0x5E	; 94
     858:	51 e0       	ldi	r21, 0x01	; 1
     85a:	0e 94 04 07 	call	0xe08	; 0xe08 <GraphLcdCharactorSet>
	GraphLcdCharactorSet(REMINDER_ROW,COL_HOUR+9,font_Um);
     85e:	82 e0       	ldi	r24, 0x02	; 2
     860:	6e e0       	ldi	r22, 0x0E	; 14
     862:	46 e6       	ldi	r20, 0x66	; 102
     864:	51 e0       	ldi	r21, 0x01	; 1
     866:	0e 94 04 07 	call	0xe08	; 0xe08 <GraphLcdCharactorSet>
}
     86a:	08 95       	ret

0000086c <ShowTimeAlarmDiff>:
void two_int_to_font(ShortInt two_ShortInt, char **p_h_font, char **p_l_font);
void GraphLcdCharactorSet( unsigned char line, unsigned char Poz, const char *Charactor);


void ShowTimeAlarmDiff()
{
     86c:	cf 92       	push	r12
     86e:	df 92       	push	r13
     870:	ef 92       	push	r14
     872:	ff 92       	push	r15
     874:	0f 93       	push	r16
     876:	1f 93       	push	r17
     878:	df 93       	push	r29
     87a:	cf 93       	push	r28
     87c:	00 d0       	rcall	.+0      	; 0x87e <ShowTimeAlarmDiff+0x12>
     87e:	00 d0       	rcall	.+0      	; 0x880 <ShowTimeAlarmDiff+0x14>
     880:	cd b7       	in	r28, 0x3d	; 61
     882:	de b7       	in	r29, 0x3e	; 62
	char *h_font, *l_font;	
	
	// ?쇰떒 ??援ы빐蹂닿린 ??[?뚭퀬由ъ쬁!]
	
	AlarmDiff *pd_min, *pd1 = &d1, *pd2 = &d2;
	getAlarmDiff(pd1, 0);
     884:	86 ea       	ldi	r24, 0xA6	; 166
     886:	92 e0       	ldi	r25, 0x02	; 2
     888:	60 e0       	ldi	r22, 0x00	; 0
     88a:	0e 94 6c 03 	call	0x6d8	; 0x6d8 <getAlarmDiff>
	getAlarmDiff(pd2, 1);
     88e:	8c ea       	ldi	r24, 0xAC	; 172
     890:	92 e0       	ldi	r25, 0x02	; 2
     892:	61 e0       	ldi	r22, 0x01	; 1
     894:	0e 94 6c 03 	call	0x6d8	; 0x6d8 <getAlarmDiff>
	pd_min = getMinDiff(pd1, pd2);
     898:	86 ea       	ldi	r24, 0xA6	; 166
     89a:	92 e0       	ldi	r25, 0x02	; 2
     89c:	6c ea       	ldi	r22, 0xAC	; 172
     89e:	72 e0       	ldi	r23, 0x02	; 2
     8a0:	0e 94 f2 03 	call	0x7e4	; 0x7e4 <getMinDiff>
     8a4:	6c 01       	movw	r12, r24
	if ( pd_min == pd1 )
     8a6:	86 ea       	ldi	r24, 0xA6	; 166
     8a8:	c8 16       	cp	r12, r24
     8aa:	82 e0       	ldi	r24, 0x02	; 2
     8ac:	d8 06       	cpc	r13, r24
     8ae:	19 f4       	brne	.+6      	; 0x8b6 <ShowTimeAlarmDiff+0x4a>
		alarmIndex = 0;
     8b0:	10 92 a5 02 	sts	0x02A5, r1
     8b4:	03 c0       	rjmp	.+6      	; 0x8bc <ShowTimeAlarmDiff+0x50>
	else
		alarmIndex = 1;
     8b6:	81 e0       	ldi	r24, 0x01	; 1
     8b8:	80 93 a5 02 	sts	0x02A5, r24

	//alarmIndex = 1;

	
	two_int_to_font(pd_min->hour, &h_font, &l_font);
     8bc:	23 e0       	ldi	r18, 0x03	; 3
     8be:	e2 2e       	mov	r14, r18
     8c0:	f1 2c       	mov	r15, r1
     8c2:	ec 0e       	add	r14, r28
     8c4:	fd 1e       	adc	r15, r29
     8c6:	f6 01       	movw	r30, r12
     8c8:	80 81       	ld	r24, Z
     8ca:	8e 01       	movw	r16, r28
     8cc:	0f 5f       	subi	r16, 0xFF	; 255
     8ce:	1f 4f       	sbci	r17, 0xFF	; 255
     8d0:	b8 01       	movw	r22, r16
     8d2:	a7 01       	movw	r20, r14
     8d4:	0e 94 a9 09 	call	0x1352	; 0x1352 <two_int_to_font>
	GraphLcdCharactorSet(REMINDER_ROW,COL_HOUR,h_font);
     8d8:	49 81       	ldd	r20, Y+1	; 0x01
     8da:	5a 81       	ldd	r21, Y+2	; 0x02
     8dc:	82 e0       	ldi	r24, 0x02	; 2
     8de:	65 e0       	ldi	r22, 0x05	; 5
     8e0:	0e 94 04 07 	call	0xe08	; 0xe08 <GraphLcdCharactorSet>
	GraphLcdCharactorSet(REMINDER_ROW,COL_HOUR+1,l_font);
     8e4:	4b 81       	ldd	r20, Y+3	; 0x03
     8e6:	5c 81       	ldd	r21, Y+4	; 0x04
     8e8:	82 e0       	ldi	r24, 0x02	; 2
     8ea:	66 e0       	ldi	r22, 0x06	; 6
     8ec:	0e 94 04 07 	call	0xe08	; 0xe08 <GraphLcdCharactorSet>
	
	two_int_to_font(pd_min->minute, &h_font, &l_font);
     8f0:	f6 01       	movw	r30, r12
     8f2:	82 81       	ldd	r24, Z+2	; 0x02
     8f4:	b8 01       	movw	r22, r16
     8f6:	a7 01       	movw	r20, r14
     8f8:	0e 94 a9 09 	call	0x1352	; 0x1352 <two_int_to_font>
	GraphLcdCharactorSet(REMINDER_ROW,COL_HOUR+4,h_font);
     8fc:	49 81       	ldd	r20, Y+1	; 0x01
     8fe:	5a 81       	ldd	r21, Y+2	; 0x02
     900:	82 e0       	ldi	r24, 0x02	; 2
     902:	69 e0       	ldi	r22, 0x09	; 9
     904:	0e 94 04 07 	call	0xe08	; 0xe08 <GraphLcdCharactorSet>
	GraphLcdCharactorSet(REMINDER_ROW,COL_HOUR+5,l_font);
     908:	4b 81       	ldd	r20, Y+3	; 0x03
     90a:	5c 81       	ldd	r21, Y+4	; 0x04
     90c:	82 e0       	ldi	r24, 0x02	; 2
     90e:	6a e0       	ldi	r22, 0x0A	; 10
     910:	0e 94 04 07 	call	0xe08	; 0xe08 <GraphLcdCharactorSet>
}
     914:	0f 90       	pop	r0
     916:	0f 90       	pop	r0
     918:	0f 90       	pop	r0
     91a:	0f 90       	pop	r0
     91c:	cf 91       	pop	r28
     91e:	df 91       	pop	r29
     920:	1f 91       	pop	r17
     922:	0f 91       	pop	r16
     924:	ff 90       	pop	r15
     926:	ef 90       	pop	r14
     928:	df 90       	pop	r13
     92a:	cf 90       	pop	r12
     92c:	08 95       	ret

0000092e <ShowAlarmTimeReminder>:

void ShowTimeAlarmDiff();
void ShowReminderText();
void ShowAlarmTimeReminder()
{
	ShowTimeAlarmDiff();
     92e:	0e 94 36 04 	call	0x86c	; 0x86c <ShowTimeAlarmDiff>
	ShowReminderText();
     932:	0e 94 17 04 	call	0x82e	; 0x82e <ShowReminderText>
}
     936:	08 95       	ret

00000938 <ShowAlarmTime7Seg>:
void ShowAlarmTime7Seg()
{
	
	
	
}
     938:	08 95       	ret

0000093a <ShowTime>:
void ShowSi(int row);
void ShowBoon(int row);
void ShowCho(int row);
void ShowNumber(int number, int row, int col);
void ShowTime(const Time *pTime, const int row)
{
     93a:	ef 92       	push	r14
     93c:	ff 92       	push	r15
     93e:	0f 93       	push	r16
     940:	1f 93       	push	r17
     942:	7c 01       	movw	r14, r24
     944:	8b 01       	movw	r16, r22
	ShowAMPM(row);
     946:	cb 01       	movw	r24, r22
     948:	0e 94 f1 09 	call	0x13e2	; 0x13e2 <ShowAMPM>
	ShowNumber(pTime->hour, row, COL_HOUR);
     94c:	f7 01       	movw	r30, r14
     94e:	80 81       	ld	r24, Z
     950:	91 81       	ldd	r25, Z+1	; 0x01
     952:	b8 01       	movw	r22, r16
     954:	45 e0       	ldi	r20, 0x05	; 5
     956:	50 e0       	ldi	r21, 0x00	; 0
     958:	0e 94 c9 09 	call	0x1392	; 0x1392 <ShowNumber>
	ShowSi(row);
     95c:	c8 01       	movw	r24, r16
     95e:	0e 94 1b 0a 	call	0x1436	; 0x1436 <ShowSi>
	ShowNumber(pTime->minute, row, COL_MINUTE);
     962:	f7 01       	movw	r30, r14
     964:	82 81       	ldd	r24, Z+2	; 0x02
     966:	93 81       	ldd	r25, Z+3	; 0x03
     968:	b8 01       	movw	r22, r16
     96a:	48 e0       	ldi	r20, 0x08	; 8
     96c:	50 e0       	ldi	r21, 0x00	; 0
     96e:	0e 94 c9 09 	call	0x1392	; 0x1392 <ShowNumber>
	ShowBoon(row);
     972:	c8 01       	movw	r24, r16
     974:	0e 94 15 0a 	call	0x142a	; 0x142a <ShowBoon>
	ShowNumber(pTime->second, row, COL_SECOND);
     978:	f7 01       	movw	r30, r14
     97a:	84 81       	ldd	r24, Z+4	; 0x04
     97c:	95 81       	ldd	r25, Z+5	; 0x05
     97e:	b8 01       	movw	r22, r16
     980:	4b e0       	ldi	r20, 0x0B	; 11
     982:	50 e0       	ldi	r21, 0x00	; 0
     984:	0e 94 c9 09 	call	0x1392	; 0x1392 <ShowNumber>
	ShowCho(row);
     988:	c8 01       	movw	r24, r16
     98a:	0e 94 0f 0a 	call	0x141e	; 0x141e <ShowCho>
}
     98e:	1f 91       	pop	r17
     990:	0f 91       	pop	r16
     992:	ff 90       	pop	r15
     994:	ef 90       	pop	r14
     996:	08 95       	ret

00000998 <StartWatch>:
{




	GLcdClr(); // Graphic LCD 화면 지우기	
     998:	0e 94 46 09 	call	0x128c	; 0x128c <GLcdClr>
	//GraphLcdCharactorGen(TITLE_ROW, title);
	//ShowText(TITLE_ROW, TITLE_COL, title);
	ShowTitle();
     99c:	0e 94 21 0a 	call	0x1442	; 0x1442 <ShowTitle>
	SetDefaultCurrentTime();
     9a0:	0e 94 72 05 	call	0xae4	; 0xae4 <SetDefaultCurrentTime>
	SetDefaultAlarmTime();
     9a4:	0e 94 85 05 	call	0xb0a	; 0xb0a <SetDefaultAlarmTime>
	TimerStart();
     9a8:	0e 94 ac 05 	call	0xb58	; 0xb58 <TimerStart>
	
	ShowTime(&CurrentTime, WATCH_ROW);
     9ac:	82 ec       	ldi	r24, 0xC2	; 194
     9ae:	92 e0       	ldi	r25, 0x02	; 2
     9b0:	61 e0       	ldi	r22, 0x01	; 1
     9b2:	70 e0       	ldi	r23, 0x00	; 0
     9b4:	0e 94 9d 04 	call	0x93a	; 0x93a <ShowTime>
	ShowAlarmTimeReminder();
     9b8:	0e 94 97 04 	call	0x92e	; 0x92e <ShowAlarmTimeReminder>
	ShowTime(&AlarmTimes[alarmIndex], ALARM_ROW);
     9bc:	80 91 a5 02 	lds	r24, 0x02A5
     9c0:	90 e0       	ldi	r25, 0x00	; 0
     9c2:	23 e0       	ldi	r18, 0x03	; 3
     9c4:	88 0f       	add	r24, r24
     9c6:	99 1f       	adc	r25, r25
     9c8:	2a 95       	dec	r18
     9ca:	e1 f7       	brne	.-8      	; 0x9c4 <StartWatch+0x2c>
     9cc:	8e 54       	subi	r24, 0x4E	; 78
     9ce:	9d 4f       	sbci	r25, 0xFD	; 253
     9d0:	63 e0       	ldi	r22, 0x03	; 3
     9d2:	70 e0       	ldi	r23, 0x00	; 0
     9d4:	0e 94 9d 04 	call	0x93a	; 0x93a <ShowTime>
}
     9d8:	08 95       	ret

000009da <ToggleAMPM>:



void ToggleAMPM()
{
	if(CurrentTime.ampm==AM)
     9da:	80 91 c8 02 	lds	r24, 0x02C8
     9de:	90 91 c9 02 	lds	r25, 0x02C9
     9e2:	89 2b       	or	r24, r25
     9e4:	39 f4       	brne	.+14     	; 0x9f4 <ToggleAMPM+0x1a>
	CurrentTime.ampm=PM;
     9e6:	81 e0       	ldi	r24, 0x01	; 1
     9e8:	90 e0       	ldi	r25, 0x00	; 0
     9ea:	90 93 c9 02 	sts	0x02C9, r25
     9ee:	80 93 c8 02 	sts	0x02C8, r24
     9f2:	04 c0       	rjmp	.+8      	; 0x9fc <ToggleAMPM+0x22>
	else
	CurrentTime.ampm=AM;
     9f4:	10 92 c9 02 	sts	0x02C9, r1
     9f8:	10 92 c8 02 	sts	0x02C8, r1
	ShowAMPM();
     9fc:	0e 94 f1 09 	call	0x13e2	; 0x13e2 <ShowAMPM>
}
     a00:	08 95       	ret

00000a02 <UpdateWatchForSecond>:
typedef	unsigned char	ShortInt;
#endif
void ShowNumber(ShortInt number, ShortInt row, ShortInt col);
void UpdateWatchForSecond()
{
	CurrentTime.second++;
     a02:	80 91 c6 02 	lds	r24, 0x02C6
     a06:	90 91 c7 02 	lds	r25, 0x02C7
     a0a:	01 96       	adiw	r24, 0x01	; 1
     a0c:	90 93 c7 02 	sts	0x02C7, r25
     a10:	80 93 c6 02 	sts	0x02C6, r24
	ShowNumber(CurrentTime.second, WATCH_ROW, COL_SECOND);
     a14:	61 e0       	ldi	r22, 0x01	; 1
     a16:	4b e0       	ldi	r20, 0x0B	; 11
     a18:	0e 94 c9 09 	call	0x1392	; 0x1392 <ShowNumber>
	if(CurrentTime.second>59)
     a1c:	80 91 c6 02 	lds	r24, 0x02C6
     a20:	90 91 c7 02 	lds	r25, 0x02C7
     a24:	8c 33       	cpi	r24, 0x3C	; 60
     a26:	91 05       	cpc	r25, r1
     a28:	cc f1       	brlt	.+114    	; 0xa9c <UpdateWatchForSecond+0x9a>
	{	
		CurrentTime.second-=60;
     a2a:	cc 97       	sbiw	r24, 0x3c	; 60
     a2c:	90 93 c7 02 	sts	0x02C7, r25
     a30:	80 93 c6 02 	sts	0x02C6, r24
		CurrentTime.minute++;
     a34:	80 91 c4 02 	lds	r24, 0x02C4
     a38:	90 91 c5 02 	lds	r25, 0x02C5
     a3c:	01 96       	adiw	r24, 0x01	; 1
     a3e:	90 93 c5 02 	sts	0x02C5, r25
     a42:	80 93 c4 02 	sts	0x02C4, r24
		ShowNumber(CurrentTime.minute, WATCH_ROW, COL_MINUTE);
     a46:	61 e0       	ldi	r22, 0x01	; 1
     a48:	48 e0       	ldi	r20, 0x08	; 8
     a4a:	0e 94 c9 09 	call	0x1392	; 0x1392 <ShowNumber>
		if(CurrentTime.minute>59)
     a4e:	80 91 c4 02 	lds	r24, 0x02C4
     a52:	90 91 c5 02 	lds	r25, 0x02C5
     a56:	8c 33       	cpi	r24, 0x3C	; 60
     a58:	91 05       	cpc	r25, r1
     a5a:	04 f1       	brlt	.+64     	; 0xa9c <UpdateWatchForSecond+0x9a>
		{
			CurrentTime.minute-=60;
     a5c:	cc 97       	sbiw	r24, 0x3c	; 60
     a5e:	90 93 c5 02 	sts	0x02C5, r25
     a62:	80 93 c4 02 	sts	0x02C4, r24
			CurrentTime.hour++;
     a66:	80 91 c2 02 	lds	r24, 0x02C2
     a6a:	90 91 c3 02 	lds	r25, 0x02C3
     a6e:	01 96       	adiw	r24, 0x01	; 1
     a70:	90 93 c3 02 	sts	0x02C3, r25
     a74:	80 93 c2 02 	sts	0x02C2, r24
			ShowNumber(CurrentTime.hour, WATCH_ROW, COL_HOUR);
     a78:	61 e0       	ldi	r22, 0x01	; 1
     a7a:	45 e0       	ldi	r20, 0x05	; 5
     a7c:	0e 94 c9 09 	call	0x1392	; 0x1392 <ShowNumber>
			if (CurrentTime.hour>11)
     a80:	80 91 c2 02 	lds	r24, 0x02C2
     a84:	90 91 c3 02 	lds	r25, 0x02C3
     a88:	8c 30       	cpi	r24, 0x0C	; 12
     a8a:	91 05       	cpc	r25, r1
     a8c:	3c f0       	brlt	.+14     	; 0xa9c <UpdateWatchForSecond+0x9a>
			{
				CurrentTime.hour-=12;
     a8e:	0c 97       	sbiw	r24, 0x0c	; 12
     a90:	90 93 c3 02 	sts	0x02C3, r25
     a94:	80 93 c2 02 	sts	0x02C2, r24
				ToggleAMPM();
     a98:	0e 94 ed 04 	call	0x9da	; 0x9da <ToggleAMPM>
     a9c:	08 95       	ret

00000a9e <UpdateWatch>:

void ShowTime(const Time *pTime, const int row);
void UpdateWatch()
{
	static ShortInt prevAlarmIndex;
	if(tenMiliSec>99){	
     a9e:	80 91 a0 02 	lds	r24, 0x02A0
     aa2:	84 36       	cpi	r24, 0x64	; 100
     aa4:	48 f0       	brcs	.+18     	; 0xab8 <UpdateWatch+0x1a>
		tenMiliSec-=100;
     aa6:	80 91 a0 02 	lds	r24, 0x02A0
     aaa:	84 56       	subi	r24, 0x64	; 100
     aac:	80 93 a0 02 	sts	0x02A0, r24
		UpdateWatchForSecond();
     ab0:	0e 94 01 05 	call	0xa02	; 0xa02 <UpdateWatchForSecond>
		ShowTimeAlarmDiff();
     ab4:	0e 94 36 04 	call	0x86c	; 0x86c <ShowTimeAlarmDiff>
	}
	if (alarmIndex != prevAlarmIndex){		
     ab8:	90 91 a5 02 	lds	r25, 0x02A5
     abc:	80 91 a4 02 	lds	r24, 0x02A4
     ac0:	98 17       	cp	r25, r24
     ac2:	79 f0       	breq	.+30     	; 0xae2 <UpdateWatch+0x44>
		prevAlarmIndex = alarmIndex;
     ac4:	90 93 a4 02 	sts	0x02A4, r25
		ShowTime(&AlarmTimes[alarmIndex], ALARM_ROW);
     ac8:	89 2f       	mov	r24, r25
     aca:	90 e0       	ldi	r25, 0x00	; 0
     acc:	23 e0       	ldi	r18, 0x03	; 3
     ace:	88 0f       	add	r24, r24
     ad0:	99 1f       	adc	r25, r25
     ad2:	2a 95       	dec	r18
     ad4:	e1 f7       	brne	.-8      	; 0xace <UpdateWatch+0x30>
     ad6:	8e 54       	subi	r24, 0x4E	; 78
     ad8:	9d 4f       	sbci	r25, 0xFD	; 253
     ada:	63 e0       	ldi	r22, 0x03	; 3
     adc:	70 e0       	ldi	r23, 0x00	; 0
     ade:	0e 94 9d 04 	call	0x93a	; 0x93a <ShowTime>
     ae2:	08 95       	ret

00000ae4 <SetDefaultCurrentTime>:
Time AlarmTimes[2];
ShortInt alarmIndex = 0;

void SetDefaultCurrentTime()
{
	CurrentTime.ampm = AM;
     ae4:	10 92 c9 02 	sts	0x02C9, r1
     ae8:	10 92 c8 02 	sts	0x02C8, r1
	CurrentTime.hour = 10;
     aec:	8a e0       	ldi	r24, 0x0A	; 10
     aee:	90 e0       	ldi	r25, 0x00	; 0
     af0:	90 93 c3 02 	sts	0x02C3, r25
     af4:	80 93 c2 02 	sts	0x02C2, r24
	CurrentTime.minute = 00;
     af8:	10 92 c5 02 	sts	0x02C5, r1
     afc:	10 92 c4 02 	sts	0x02C4, r1
	CurrentTime.second = 0;	
     b00:	10 92 c7 02 	sts	0x02C7, r1
     b04:	10 92 c6 02 	sts	0x02C6, r1
}
     b08:	08 95       	ret

00000b0a <SetDefaultAlarmTime>:



void SetDefaultAlarmTime()
{
	AlarmTimes[0].ampm = AM;
     b0a:	10 92 b9 02 	sts	0x02B9, r1
     b0e:	10 92 b8 02 	sts	0x02B8, r1
	AlarmTimes[0].hour = 10;
     b12:	8a e0       	ldi	r24, 0x0A	; 10
     b14:	90 e0       	ldi	r25, 0x00	; 0
     b16:	90 93 b3 02 	sts	0x02B3, r25
     b1a:	80 93 b2 02 	sts	0x02B2, r24
	AlarmTimes[0].minute = 00;
     b1e:	10 92 b5 02 	sts	0x02B5, r1
     b22:	10 92 b4 02 	sts	0x02B4, r1
	//AlarmTime.minute = 20;
	AlarmTimes[0].second = 5;
     b26:	25 e0       	ldi	r18, 0x05	; 5
     b28:	30 e0       	ldi	r19, 0x00	; 0
     b2a:	30 93 b7 02 	sts	0x02B7, r19
     b2e:	20 93 b6 02 	sts	0x02B6, r18
	
	AlarmTimes[1].ampm = AM;
     b32:	10 92 c1 02 	sts	0x02C1, r1
     b36:	10 92 c0 02 	sts	0x02C0, r1
	AlarmTimes[1].hour = 10;
     b3a:	90 93 bb 02 	sts	0x02BB, r25
     b3e:	80 93 ba 02 	sts	0x02BA, r24
	AlarmTimes[1].minute = 00;
     b42:	10 92 bd 02 	sts	0x02BD, r1
     b46:	10 92 bc 02 	sts	0x02BC, r1
	//AlarmTime.minute = 20;
	AlarmTimes[1].second = 30;
     b4a:	8e e1       	ldi	r24, 0x1E	; 30
     b4c:	90 e0       	ldi	r25, 0x00	; 0
     b4e:	90 93 bf 02 	sts	0x02BF, r25
     b52:	80 93 be 02 	sts	0x02BE, r24
}
     b56:	08 95       	ret

00000b58 <TimerStart>:



void TimerStart(void){		
	TIMSK = 0x01; 	// Timer enable
     b58:	81 e0       	ldi	r24, 0x01	; 1
     b5a:	87 bf       	out	0x37, r24	; 55
	TCCR0 = 0x07 ;  // CLK / 1024
     b5c:	87 e0       	ldi	r24, 0x07	; 7
     b5e:	83 bf       	out	0x33, r24	; 51
    TCNT0 = 178 ;
     b60:	82 eb       	ldi	r24, 0xB2	; 178
     b62:	82 bf       	out	0x32, r24	; 50
    X * 1024 * ( 1.25 * 10^-7 ) = 10mSEC
    X = 78.125
    256 - 78.125 = 178  = TCNT0
     
    ************************************************************/
}
     b64:	08 95       	ret

00000b66 <Platform_Init>:
volatile unsigned char led_count, led_toggle_flag, ExtGraphLcdCnt;

#include <avr/io.h>
void Platform_Init(void){
	
    MCUCR = 0x80 ;
     b66:	90 e8       	ldi	r25, 0x80	; 128
     b68:	95 bf       	out	0x35, r25	; 53
	XMCRA = 0x44 ;
     b6a:	84 e4       	ldi	r24, 0x44	; 68
     b6c:	80 93 6d 00 	sts	0x006D, r24
	XMCRB = 0x80 ;
     b70:	90 93 6c 00 	sts	0x006C, r25

	DDRB = 0xf0 ; // 1111 0000 : 포트 4개만 출력으로 설정
     b74:	80 ef       	ldi	r24, 0xF0	; 240
     b76:	87 bb       	out	0x17, r24	; 23
	DDRE = 0x0c ; // 0000 1100 : 포트 2개만 출력으로 설정
     b78:	8c e0       	ldi	r24, 0x0C	; 12
     b7a:	82 b9       	out	0x02, r24	; 2
    DDRD = 0x30 ; // 0011 0000 : 포트 2개만 출력으로 설정	
     b7c:	80 e3       	ldi	r24, 0x30	; 48
     b7e:	81 bb       	out	0x11, r24	; 17
}
     b80:	08 95       	ret

00000b82 <Timer0_Init>:

void Timer0_Init(void){ 
	TIMSK = 0x01; 	
     b82:	81 e0       	ldi	r24, 0x01	; 1
     b84:	87 bf       	out	0x37, r24	; 55
	TCCR0 = 0x07 ; // CLK / 1024
     b86:	87 e0       	ldi	r24, 0x07	; 7
     b88:	83 bf       	out	0x33, r24	; 51
     
    TCNT0 = 178 ;
     b8a:	82 eb       	ldi	r24, 0xB2	; 178
     b8c:	82 bf       	out	0x32, r24	; 50
    X = 78.125
    256 - 78.125 = 178  = TCNT0
     
    ************************************************************/

}
     b8e:	08 95       	ret

00000b90 <led_run>:

void led_run(void){	
	if(led_count >= 50){   // CPU LED RUN
     b90:	80 91 ca 02 	lds	r24, 0x02CA
     b94:	82 33       	cpi	r24, 0x32	; 50
     b96:	b0 f0       	brcs	.+44     	; 0xbc4 <led_run+0x34>
  	if(led_toggle_flag == 0){
     b98:	80 91 cb 02 	lds	r24, 0x02CB
     b9c:	88 23       	and	r24, r24
     b9e:	41 f4       	brne	.+16     	; 0xbb0 <led_run+0x20>
    	cbi(PORTE, 2 ) ;
     ba0:	1a 98       	cbi	0x03, 2	; 3
		cbi(PORTE, 3 ) ;
     ba2:	1b 98       	cbi	0x03, 3	; 3
    	led_count = 0 ;
     ba4:	10 92 ca 02 	sts	0x02CA, r1
    	led_toggle_flag = 1 ;
     ba8:	81 e0       	ldi	r24, 0x01	; 1
     baa:	80 93 cb 02 	sts	0x02CB, r24
     bae:	08 95       	ret
    }
	
    else if(led_toggle_flag == 1){
     bb0:	80 91 cb 02 	lds	r24, 0x02CB
     bb4:	81 30       	cpi	r24, 0x01	; 1
     bb6:	31 f4       	brne	.+12     	; 0xbc4 <led_run+0x34>
       sbi(PORTE , 2 ) ;
     bb8:	1a 9a       	sbi	0x03, 2	; 3
	   sbi(PORTE , 3 ) ;
     bba:	1b 9a       	sbi	0x03, 3	; 3
       led_count = 0 ;
     bbc:	10 92 ca 02 	sts	0x02CA, r1
       led_toggle_flag = 0 ;
     bc0:	10 92 cb 02 	sts	0x02CB, r1
     bc4:	08 95       	ret

00000bc6 <CpuLedSet>:

// Update 20080409 - Hong
// GPID LED Control
void CpuLedSet(int sel){	
	// Initailization
	sbi(PORTE,2);
     bc6:	1a 9a       	sbi	0x03, 2	; 3
	sbi(PORTE,3);
     bc8:	1b 9a       	sbi	0x03, 3	; 3
	sbi(PORTD,4);
     bca:	94 9a       	sbi	0x12, 4	; 18
	sbi(PORTD,5);
     bcc:	95 9a       	sbi	0x12, 5	; 18
	sbi(PORTB,4);
     bce:	c4 9a       	sbi	0x18, 4	; 24
	sbi(PORTB,5);
     bd0:	c5 9a       	sbi	0x18, 5	; 24
	sbi(PORTB,6);
     bd2:	c6 9a       	sbi	0x18, 6	; 24
	sbi(PORTB,7);
     bd4:	c7 9a       	sbi	0x18, 7	; 24

	switch(sel) {
     bd6:	83 30       	cpi	r24, 0x03	; 3
     bd8:	91 05       	cpc	r25, r1
     bda:	f1 f0       	breq	.+60     	; 0xc18 <CpuLedSet+0x52>
     bdc:	84 30       	cpi	r24, 0x04	; 4
     bde:	91 05       	cpc	r25, r1
     be0:	4c f4       	brge	.+18     	; 0xbf4 <CpuLedSet+0x2e>
     be2:	81 30       	cpi	r24, 0x01	; 1
     be4:	91 05       	cpc	r25, r1
     be6:	a1 f0       	breq	.+40     	; 0xc10 <CpuLedSet+0x4a>
     be8:	82 30       	cpi	r24, 0x02	; 2
     bea:	91 05       	cpc	r25, r1
     bec:	9c f4       	brge	.+38     	; 0xc14 <CpuLedSet+0x4e>
     bee:	89 2b       	or	r24, r25
     bf0:	69 f0       	breq	.+26     	; 0xc0c <CpuLedSet+0x46>
     bf2:	08 95       	ret
     bf4:	85 30       	cpi	r24, 0x05	; 5
     bf6:	91 05       	cpc	r25, r1
     bf8:	99 f0       	breq	.+38     	; 0xc20 <CpuLedSet+0x5a>
     bfa:	85 30       	cpi	r24, 0x05	; 5
     bfc:	91 05       	cpc	r25, r1
     bfe:	74 f0       	brlt	.+28     	; 0xc1c <CpuLedSet+0x56>
     c00:	86 30       	cpi	r24, 0x06	; 6
     c02:	91 05       	cpc	r25, r1
     c04:	79 f0       	breq	.+30     	; 0xc24 <CpuLedSet+0x5e>
     c06:	07 97       	sbiw	r24, 0x07	; 7
     c08:	81 f4       	brne	.+32     	; 0xc2a <CpuLedSet+0x64>
     c0a:	0e c0       	rjmp	.+28     	; 0xc28 <CpuLedSet+0x62>
		case 0 :
   			cbi(PORTE, 2);
     c0c:	1a 98       	cbi	0x03, 2	; 3
     c0e:	08 95       	ret
			break;
		case 1 :
			cbi(PORTE, 3);
     c10:	1b 98       	cbi	0x03, 3	; 3
     c12:	08 95       	ret
			break;
		case 2 :
			cbi(PORTD, 4);
     c14:	94 98       	cbi	0x12, 4	; 18
     c16:	08 95       	ret
			break;
		case 3 :
			cbi(PORTD, 5);
     c18:	95 98       	cbi	0x12, 5	; 18
     c1a:	08 95       	ret
			break;
		case 4 :
			cbi(PORTB, 4);
     c1c:	c4 98       	cbi	0x18, 4	; 24
     c1e:	08 95       	ret
			break;
		case 5 :
			cbi(PORTB, 5);
     c20:	c5 98       	cbi	0x18, 5	; 24
     c22:	08 95       	ret
			break;
		case 6 :
			cbi(PORTB, 6);
     c24:	c6 98       	cbi	0x18, 6	; 24
     c26:	08 95       	ret
			break;
		case 7 :
			cbi(PORTB, 7);
     c28:	c7 98       	cbi	0x18, 7	; 24
     c2a:	08 95       	ret

00000c2c <ExtFndSet>:

// Update 20080409 - Hong
// Extend FND Control
void ExtFndSet(unsigned int sel) {
	
	switch(sel) {
     c2c:	85 30       	cpi	r24, 0x05	; 5
     c2e:	91 05       	cpc	r25, r1
     c30:	81 f1       	breq	.+96     	; 0xc92 <ExtFndSet+0x66>
     c32:	86 30       	cpi	r24, 0x06	; 6
     c34:	91 05       	cpc	r25, r1
     c36:	88 f4       	brcc	.+34     	; 0xc5a <ExtFndSet+0x2e>
     c38:	82 30       	cpi	r24, 0x02	; 2
     c3a:	91 05       	cpc	r25, r1
     c3c:	21 f1       	breq	.+72     	; 0xc86 <ExtFndSet+0x5a>
     c3e:	83 30       	cpi	r24, 0x03	; 3
     c40:	91 05       	cpc	r25, r1
     c42:	28 f4       	brcc	.+10     	; 0xc4e <ExtFndSet+0x22>
     c44:	00 97       	sbiw	r24, 0x00	; 0
     c46:	d9 f0       	breq	.+54     	; 0xc7e <ExtFndSet+0x52>
     c48:	01 97       	sbiw	r24, 0x01	; 1
     c4a:	91 f5       	brne	.+100    	; 0xcb0 <ExtFndSet+0x84>
     c4c:	1a c0       	rjmp	.+52     	; 0xc82 <ExtFndSet+0x56>
     c4e:	83 30       	cpi	r24, 0x03	; 3
     c50:	91 05       	cpc	r25, r1
     c52:	d9 f0       	breq	.+54     	; 0xc8a <ExtFndSet+0x5e>
     c54:	04 97       	sbiw	r24, 0x04	; 4
     c56:	61 f5       	brne	.+88     	; 0xcb0 <ExtFndSet+0x84>
     c58:	1a c0       	rjmp	.+52     	; 0xc8e <ExtFndSet+0x62>
     c5a:	88 30       	cpi	r24, 0x08	; 8
     c5c:	91 05       	cpc	r25, r1
     c5e:	f9 f0       	breq	.+62     	; 0xc9e <ExtFndSet+0x72>
     c60:	89 30       	cpi	r24, 0x09	; 9
     c62:	91 05       	cpc	r25, r1
     c64:	30 f4       	brcc	.+12     	; 0xc72 <ExtFndSet+0x46>
     c66:	86 30       	cpi	r24, 0x06	; 6
     c68:	91 05       	cpc	r25, r1
     c6a:	a9 f0       	breq	.+42     	; 0xc96 <ExtFndSet+0x6a>
     c6c:	07 97       	sbiw	r24, 0x07	; 7
     c6e:	01 f5       	brne	.+64     	; 0xcb0 <ExtFndSet+0x84>
     c70:	14 c0       	rjmp	.+40     	; 0xc9a <ExtFndSet+0x6e>
     c72:	89 30       	cpi	r24, 0x09	; 9
     c74:	91 05       	cpc	r25, r1
     c76:	a9 f0       	breq	.+42     	; 0xca2 <ExtFndSet+0x76>
     c78:	0a 97       	sbiw	r24, 0x0a	; 10
     c7a:	d1 f4       	brne	.+52     	; 0xcb0 <ExtFndSet+0x84>
     c7c:	16 c0       	rjmp	.+44     	; 0xcaa <ExtFndSet+0x7e>
	case 0 : 
		FND_DATA = ~0x3F;
     c7e:	80 ec       	ldi	r24, 0xC0	; 192
     c80:	11 c0       	rjmp	.+34     	; 0xca4 <ExtFndSet+0x78>
		break;
	case 1 : 
		FND_DATA = ~0x06;
     c82:	89 ef       	ldi	r24, 0xF9	; 249
     c84:	0f c0       	rjmp	.+30     	; 0xca4 <ExtFndSet+0x78>
		break;
	case 2 : 
		FND_DATA = ~0x5B;
     c86:	84 ea       	ldi	r24, 0xA4	; 164
     c88:	0d c0       	rjmp	.+26     	; 0xca4 <ExtFndSet+0x78>
		break;
	case 3 : 
		FND_DATA = ~0x4F;
     c8a:	80 eb       	ldi	r24, 0xB0	; 176
     c8c:	0b c0       	rjmp	.+22     	; 0xca4 <ExtFndSet+0x78>
		break;
	case 4 : 
		FND_DATA = ~0x66;
     c8e:	89 e9       	ldi	r24, 0x99	; 153
     c90:	09 c0       	rjmp	.+18     	; 0xca4 <ExtFndSet+0x78>
		break;
	case 5 : 
		FND_DATA = ~0x6D;
     c92:	82 e9       	ldi	r24, 0x92	; 146
     c94:	07 c0       	rjmp	.+14     	; 0xca4 <ExtFndSet+0x78>
		break;
	case 6 : 
		FND_DATA = ~0x7C;
     c96:	83 e8       	ldi	r24, 0x83	; 131
     c98:	05 c0       	rjmp	.+10     	; 0xca4 <ExtFndSet+0x78>
		break;
	case 7 : 
		FND_DATA = ~0x07;
     c9a:	88 ef       	ldi	r24, 0xF8	; 248
     c9c:	03 c0       	rjmp	.+6      	; 0xca4 <ExtFndSet+0x78>
		break;
	case 8 : 
		FND_DATA = ~0x7F;
     c9e:	80 e8       	ldi	r24, 0x80	; 128
     ca0:	01 c0       	rjmp	.+2      	; 0xca4 <ExtFndSet+0x78>
		break;
	case 9 : 
		FND_DATA = ~0x6F;
     ca2:	80 e9       	ldi	r24, 0x90	; 144
     ca4:	80 93 00 6c 	sts	0x6C00, r24
     ca8:	08 95       	ret
		break;
	case 10 : 
		FND_DATA = ~0x80;
     caa:	8f e7       	ldi	r24, 0x7F	; 127
     cac:	80 93 00 6c 	sts	0x6C00, r24
     cb0:	08 95       	ret

00000cb2 <Delay_us>:
	}
}

// 마이크로초 단위의 딜레이 함수
extern void Delay_us(unsigned char time_us)
{
     cb2:	90 e0       	ldi	r25, 0x00	; 0
     cb4:	07 c0       	rjmp	.+14     	; 0xcc4 <Delay_us+0x12>
	register unsigned char i;

	for(i = 0; i < time_us; i++)
	{
		asm volatile("PUSH R0");
     cb6:	0f 92       	push	r0
		asm volatile("POP R0");
     cb8:	0f 90       	pop	r0
		asm volatile("PUSH R0");
     cba:	0f 92       	push	r0
		asm volatile("POP R0");
     cbc:	0f 90       	pop	r0
		asm volatile("PUSH R0");
     cbe:	0f 92       	push	r0
		asm volatile("POP R0");
     cc0:	0f 90       	pop	r0
// 마이크로초 단위의 딜레이 함수
extern void Delay_us(unsigned char time_us)
{
	register unsigned char i;

	for(i = 0; i < time_us; i++)
     cc2:	9f 5f       	subi	r25, 0xFF	; 255
     cc4:	98 17       	cp	r25, r24
     cc6:	b8 f3       	brcs	.-18     	; 0xcb6 <Delay_us+0x4>
		asm volatile("PUSH R0");
		asm volatile("POP R0");
		asm volatile("PUSH R0");
		asm volatile("POP R0");
	}
}
     cc8:	08 95       	ret

00000cca <Delay_ms>:

// 미리초 단위의 딜레이 함수
extern void Delay_ms(unsigned int time_ms)
{
     cca:	0f 93       	push	r16
     ccc:	1f 93       	push	r17
     cce:	cf 93       	push	r28
     cd0:	df 93       	push	r29
     cd2:	8c 01       	movw	r16, r24
     cd4:	c0 e0       	ldi	r28, 0x00	; 0
     cd6:	d0 e0       	ldi	r29, 0x00	; 0
     cd8:	0d c0       	rjmp	.+26     	; 0xcf4 <Delay_ms+0x2a>
	register unsigned int i;

	for(i = 0; i < time_ms; i++)
	{
		Delay_us(250);
     cda:	8a ef       	ldi	r24, 0xFA	; 250
     cdc:	0e 94 59 06 	call	0xcb2	; 0xcb2 <Delay_us>
		Delay_us(250);
     ce0:	8a ef       	ldi	r24, 0xFA	; 250
     ce2:	0e 94 59 06 	call	0xcb2	; 0xcb2 <Delay_us>
		Delay_us(250);
     ce6:	8a ef       	ldi	r24, 0xFA	; 250
     ce8:	0e 94 59 06 	call	0xcb2	; 0xcb2 <Delay_us>
		Delay_us(250);
     cec:	8a ef       	ldi	r24, 0xFA	; 250
     cee:	0e 94 59 06 	call	0xcb2	; 0xcb2 <Delay_us>
// 미리초 단위의 딜레이 함수
extern void Delay_ms(unsigned int time_ms)
{
	register unsigned int i;

	for(i = 0; i < time_ms; i++)
     cf2:	21 96       	adiw	r28, 0x01	; 1
     cf4:	c0 17       	cp	r28, r16
     cf6:	d1 07       	cpc	r29, r17
     cf8:	80 f3       	brcs	.-32     	; 0xcda <Delay_ms+0x10>
		Delay_us(250);
		Delay_us(250);
		Delay_us(250);
		Delay_us(250);
	}
}
     cfa:	df 91       	pop	r29
     cfc:	cf 91       	pop	r28
     cfe:	1f 91       	pop	r17
     d00:	0f 91       	pop	r16
     d02:	08 95       	ret

00000d04 <LCD_data>:



/* LCD에 문자를 기록하는 함수 */
void LCD_data(unsigned char lcd_data)
{		
     d04:	ff 92       	push	r15
     d06:	0f 93       	push	r16
     d08:	1f 93       	push	r17
	LCD_CONTROL = 0x02;				// E = 0, Rs = 1
     d0a:	00 e0       	ldi	r16, 0x00	; 0
     d0c:	14 e6       	ldi	r17, 0x64	; 100
     d0e:	92 e0       	ldi	r25, 0x02	; 2
     d10:	f9 2e       	mov	r15, r25
     d12:	f8 01       	movw	r30, r16
     d14:	f0 82       	st	Z, r15
	LCD_DATA = lcd_data;				// output data
     d16:	80 93 00 68 	sts	0x6800, r24
	LCD_CONTROL = 0x03;				// E = 1
     d1a:	83 e0       	ldi	r24, 0x03	; 3
     d1c:	80 83       	st	Z, r24
	Delay_us(1);
     d1e:	81 e0       	ldi	r24, 0x01	; 1
     d20:	0e 94 59 06 	call	0xcb2	; 0xcb2 <Delay_us>
	LCD_CONTROL = 0x02;				// E = 0
     d24:	f8 01       	movw	r30, r16
     d26:	f0 82       	st	Z, r15
	Delay_us(50);
     d28:	82 e3       	ldi	r24, 0x32	; 50
     d2a:	0e 94 59 06 	call	0xcb2	; 0xcb2 <Delay_us>
}
     d2e:	1f 91       	pop	r17
     d30:	0f 91       	pop	r16
     d32:	ff 90       	pop	r15
     d34:	08 95       	ret

00000d36 <LCD_command>:

/* Text LCD에 적용할 명령을 처리하는 함수 */
void LCD_command(unsigned char command)		
{
     d36:	0f 93       	push	r16
     d38:	1f 93       	push	r17
	LCD_CONTROL = 0x00;				// E = 0, Rs = 0
     d3a:	00 e0       	ldi	r16, 0x00	; 0
     d3c:	14 e6       	ldi	r17, 0x64	; 100
     d3e:	f8 01       	movw	r30, r16
     d40:	10 82       	st	Z, r1
	LCD_DATA = command;			    // output command
     d42:	80 93 00 68 	sts	0x6800, r24
	LCD_CONTROL = 0x01;				// E = 1
     d46:	81 e0       	ldi	r24, 0x01	; 1
     d48:	80 83       	st	Z, r24
	Delay_us(1);
     d4a:	0e 94 59 06 	call	0xcb2	; 0xcb2 <Delay_us>
	LCD_CONTROL = 0x00;				// E = 0
     d4e:	f8 01       	movw	r30, r16
     d50:	10 82       	st	Z, r1
	Delay_us(50);
     d52:	82 e3       	ldi	r24, 0x32	; 50
     d54:	0e 94 59 06 	call	0xcb2	; 0xcb2 <Delay_us>
}
     d58:	1f 91       	pop	r17
     d5a:	0f 91       	pop	r16
     d5c:	08 95       	ret

00000d5e <LCD_Print>:

/* LCD에 문자열을 출력하는 함수 
    : 문자열 커맨드와 문자열 포인터를 받아서 한문자씩 출한다. */
void LCD_Print(unsigned char command, char *string) 
{
     d5e:	cf 93       	push	r28
     d60:	df 93       	push	r29
     d62:	eb 01       	movw	r28, r22
  LCD_command(command);				// 출력할 포지션을 설정한다
     d64:	0e 94 9b 06 	call	0xd36	; 0xd36 <LCD_command>
     d68:	03 c0       	rjmp	.+6      	; 0xd70 <LCD_Print+0x12>
  while(*string != '\0')			// 문자열이 끝날때 까지 반복
    { 
		LCD_data(*string);
     d6a:	0e 94 82 06 	call	0xd04	; 0xd04 <LCD_data>
       	string++;					// 포인터를 이동시킨다.
     d6e:	21 96       	adiw	r28, 0x01	; 1
/* LCD에 문자열을 출력하는 함수 
    : 문자열 커맨드와 문자열 포인터를 받아서 한문자씩 출한다. */
void LCD_Print(unsigned char command, char *string) 
{
  LCD_command(command);				// 출력할 포지션을 설정한다
  while(*string != '\0')			// 문자열이 끝날때 까지 반복
     d70:	88 81       	ld	r24, Y
     d72:	88 23       	and	r24, r24
     d74:	d1 f7       	brne	.-12     	; 0xd6a <LCD_Print+0xc>
    { 
		LCD_data(*string);
       	string++;					// 포인터를 이동시킨다.
    }
}
     d76:	df 91       	pop	r29
     d78:	cf 91       	pop	r28
     d7a:	08 95       	ret

00000d7c <LCD_initialize>:

/* LCD를 초기화 해주는 함수 */
void LCD_initialize(void)			// Text LCD 모듈을 초기화 한다.
{
  LCD_command(0x38);				// 출력될 LCD 설정 (8 bit, 2 line, 5x7 dot)
     d7c:	88 e3       	ldi	r24, 0x38	; 56
     d7e:	0e 94 9b 06 	call	0xd36	; 0xd36 <LCD_command>
  LCD_command(0x0C);				// 출력제어(display ON, cursor OFF)
     d82:	8c e0       	ldi	r24, 0x0C	; 12
     d84:	0e 94 9b 06 	call	0xd36	; 0xd36 <LCD_command>
  LCD_command(0x06);				// 출력설정(increment, not shift)
     d88:	86 e0       	ldi	r24, 0x06	; 6
     d8a:	0e 94 9b 06 	call	0xd36	; 0xd36 <LCD_command>
  LCD_command(0x01);				// Text LCD화면 지우기
     d8e:	81 e0       	ldi	r24, 0x01	; 1
     d90:	0e 94 9b 06 	call	0xd36	; 0xd36 <LCD_command>
  Delay_ms(2);
     d94:	82 e0       	ldi	r24, 0x02	; 2
     d96:	90 e0       	ldi	r25, 0x00	; 0
     d98:	0e 94 65 06 	call	0xcca	; 0xcca <Delay_ms>
}
     d9c:	08 95       	ret

00000d9e <GLcdSetData>:
  Delay_us(50);                                                  // wait for GLCD busy
}

// LCD에 한문자를 출력해주는 함수 
void GLcdSetData(unsigned int signal,unsigned int character)     // write a data 
{ LCD_CONTROL = (signal & 0xC0)|0x10;		                     // D/-I = 1
     d9e:	0f 93       	push	r16
     da0:	1f 93       	push	r17
     da2:	80 7c       	andi	r24, 0xC0	; 192
     da4:	98 2f       	mov	r25, r24
     da6:	90 61       	ori	r25, 0x10	; 16
     da8:	00 e0       	ldi	r16, 0x00	; 0
     daa:	14 e6       	ldi	r17, 0x64	; 100
     dac:	f8 01       	movw	r30, r16
     dae:	90 83       	st	Z, r25
  LCD_DATA = character;                                          // write data
     db0:	60 93 00 68 	sts	0x6800, r22
  LCD_CONTROL = (signal & 0xC0)|0x30;		                     // E = 1
     db4:	80 63       	ori	r24, 0x30	; 48
     db6:	80 83       	st	Z, r24
  LCD_CONTROL = (signal & 0xC0)|0x10;                            // E = 0
     db8:	90 83       	st	Z, r25
  Delay_us(10);
     dba:	8a e0       	ldi	r24, 0x0A	; 10
     dbc:	90 e0       	ldi	r25, 0x00	; 0
     dbe:	0e 94 59 06 	call	0xcb2	; 0xcb2 <Delay_us>
  LCD_CONTROL = 0x00;				                             // clear all control signals
     dc2:	f8 01       	movw	r30, r16
     dc4:	10 82       	st	Z, r1
  Delay_us(50);                                                   // wait GLCD busy
     dc6:	82 e3       	ldi	r24, 0x32	; 50
     dc8:	90 e0       	ldi	r25, 0x00	; 0
     dca:	0e 94 59 06 	call	0xcb2	; 0xcb2 <Delay_us>
}
     dce:	1f 91       	pop	r17
     dd0:	0f 91       	pop	r16
     dd2:	08 95       	ret

00000dd4 <GLcdCmd>:


#include "LCD_MAP.h"

// LCD 제어 함수
void GLcdCmd(unsigned char signal,unsigned char command){   // write a command 
     dd4:	0f 93       	push	r16
     dd6:	1f 93       	push	r17
  LCD_CONTROL = signal & 0xC0;
     dd8:	80 7c       	andi	r24, 0xC0	; 192
     dda:	00 e0       	ldi	r16, 0x00	; 0
     ddc:	14 e6       	ldi	r17, 0x64	; 100
     dde:	f8 01       	movw	r30, r16
     de0:	80 83       	st	Z, r24
                			                             // D/-I = 0
  LCD_DATA = command;                                            // write command
     de2:	60 93 00 68 	sts	0x6800, r22
  LCD_CONTROL = (signal & 0xC0)|0x20;	                         // E = 1
     de6:	98 2f       	mov	r25, r24
     de8:	90 62       	ori	r25, 0x20	; 32
     dea:	90 83       	st	Z, r25
  LCD_CONTROL = signal & 0xC0;                                   // E = 0
     dec:	80 83       	st	Z, r24
  Delay_us(10);
     dee:	8a e0       	ldi	r24, 0x0A	; 10
     df0:	90 e0       	ldi	r25, 0x00	; 0
     df2:	0e 94 59 06 	call	0xcb2	; 0xcb2 <Delay_us>
  LCD_CONTROL = 0x00;				                            // clear all control signals
     df6:	f8 01       	movw	r30, r16
     df8:	10 82       	st	Z, r1
  Delay_us(50);                                                  // wait for GLCD busy
     dfa:	82 e3       	ldi	r24, 0x32	; 50
     dfc:	90 e0       	ldi	r25, 0x00	; 0
     dfe:	0e 94 59 06 	call	0xcb2	; 0xcb2 <Delay_us>
}
     e02:	1f 91       	pop	r17
     e04:	0f 91       	pop	r16
     e06:	08 95       	ret

00000e08 <GraphLcdCharactorSet>:
                          
}  

// LCD에 문자를 출력해주는 함수
void GraphLcdCharactorSet( unsigned char line, unsigned char Poz, const char *Charactor)
{
     e08:	ef 92       	push	r14
     e0a:	ff 92       	push	r15
     e0c:	0f 93       	push	r16
     e0e:	1f 93       	push	r17
     e10:	cf 93       	push	r28
     e12:	df 93       	push	r29
     e14:	78 2f       	mov	r23, r24
	unsigned char i=0;
	unsigned char gSet;
	unsigned char gPoz;

	switch(Poz) {
     e16:	67 30       	cpi	r22, 0x07	; 7
     e18:	81 f1       	breq	.+96     	; 0xe7a <GraphLcdCharactorSet+0x72>
     e1a:	68 30       	cpi	r22, 0x08	; 8
     e1c:	70 f4       	brcc	.+28     	; 0xe3a <GraphLcdCharactorSet+0x32>
     e1e:	63 30       	cpi	r22, 0x03	; 3
     e20:	21 f1       	breq	.+72     	; 0xe6a <GraphLcdCharactorSet+0x62>
     e22:	64 30       	cpi	r22, 0x04	; 4
     e24:	28 f4       	brcc	.+10     	; 0xe30 <GraphLcdCharactorSet+0x28>
     e26:	61 30       	cpi	r22, 0x01	; 1
     e28:	e1 f0       	breq	.+56     	; 0xe62 <GraphLcdCharactorSet+0x5a>
     e2a:	62 30       	cpi	r22, 0x02	; 2
     e2c:	e0 f4       	brcc	.+56     	; 0xe66 <GraphLcdCharactorSet+0x5e>
     e2e:	17 c0       	rjmp	.+46     	; 0xe5e <GraphLcdCharactorSet+0x56>
     e30:	65 30       	cpi	r22, 0x05	; 5
     e32:	f9 f0       	breq	.+62     	; 0xe72 <GraphLcdCharactorSet+0x6a>
     e34:	66 30       	cpi	r22, 0x06	; 6
     e36:	f8 f4       	brcc	.+62     	; 0xe76 <GraphLcdCharactorSet+0x6e>
     e38:	1a c0       	rjmp	.+52     	; 0xe6e <GraphLcdCharactorSet+0x66>
     e3a:	6b 30       	cpi	r22, 0x0B	; 11
     e3c:	49 f1       	breq	.+82     	; 0xe90 <GraphLcdCharactorSet+0x88>
     e3e:	6c 30       	cpi	r22, 0x0C	; 12
     e40:	28 f4       	brcc	.+10     	; 0xe4c <GraphLcdCharactorSet+0x44>
     e42:	69 30       	cpi	r22, 0x09	; 9
     e44:	f9 f0       	breq	.+62     	; 0xe84 <GraphLcdCharactorSet+0x7c>
     e46:	6a 30       	cpi	r22, 0x0A	; 10
     e48:	00 f5       	brcc	.+64     	; 0xe8a <GraphLcdCharactorSet+0x82>
     e4a:	19 c0       	rjmp	.+50     	; 0xe7e <GraphLcdCharactorSet+0x76>
     e4c:	6d 30       	cpi	r22, 0x0D	; 13
     e4e:	31 f1       	breq	.+76     	; 0xe9c <GraphLcdCharactorSet+0x94>
     e50:	6d 30       	cpi	r22, 0x0D	; 13
     e52:	08 f1       	brcs	.+66     	; 0xe96 <GraphLcdCharactorSet+0x8e>
     e54:	6e 30       	cpi	r22, 0x0E	; 14
     e56:	29 f1       	breq	.+74     	; 0xea2 <GraphLcdCharactorSet+0x9a>
     e58:	6f 30       	cpi	r22, 0x0F	; 15
     e5a:	41 f5       	brne	.+80     	; 0xeac <GraphLcdCharactorSet+0xa4>
     e5c:	25 c0       	rjmp	.+74     	; 0xea8 <GraphLcdCharactorSet+0xa0>
     e5e:	00 e4       	ldi	r16, 0x40	; 64
     e60:	0f c0       	rjmp	.+30     	; 0xe80 <GraphLcdCharactorSet+0x78>
     e62:	00 e4       	ldi	r16, 0x40	; 64
     e64:	10 c0       	rjmp	.+32     	; 0xe86 <GraphLcdCharactorSet+0x7e>
		case 0 : gSet = 0x40; gPoz = 0x40; break;  case 1 : gSet = 0x40; gPoz = 0x48; break;
     e66:	00 e4       	ldi	r16, 0x40	; 64
     e68:	11 c0       	rjmp	.+34     	; 0xe8c <GraphLcdCharactorSet+0x84>
		case 2 : gSet = 0x40; gPoz = 0x50; break;  case 3 : gSet = 0x40; gPoz = 0x58; break;
     e6a:	00 e4       	ldi	r16, 0x40	; 64
     e6c:	12 c0       	rjmp	.+36     	; 0xe92 <GraphLcdCharactorSet+0x8a>
     e6e:	00 e4       	ldi	r16, 0x40	; 64
     e70:	13 c0       	rjmp	.+38     	; 0xe98 <GraphLcdCharactorSet+0x90>
		case 4 : gSet = 0x40; gPoz = 0x60; break;  case 5 : gSet = 0x40; gPoz = 0x68; break;
     e72:	00 e4       	ldi	r16, 0x40	; 64
     e74:	14 c0       	rjmp	.+40     	; 0xe9e <GraphLcdCharactorSet+0x96>
     e76:	00 e4       	ldi	r16, 0x40	; 64
     e78:	15 c0       	rjmp	.+42     	; 0xea4 <GraphLcdCharactorSet+0x9c>
		case 6 : gSet = 0x40; gPoz = 0x70; break;  case 7 : gSet = 0x40; gPoz = 0x78; break;
     e7a:	00 e4       	ldi	r16, 0x40	; 64
     e7c:	16 c0       	rjmp	.+44     	; 0xeaa <GraphLcdCharactorSet+0xa2>
     e7e:	00 e8       	ldi	r16, 0x80	; 128
     e80:	10 e4       	ldi	r17, 0x40	; 64
     e82:	14 c0       	rjmp	.+40     	; 0xeac <GraphLcdCharactorSet+0xa4>
		case 8 : gSet = 0x80; gPoz = 0x40; break;  case 9 : gSet = 0x80; gPoz = 0x48; break;
     e84:	00 e8       	ldi	r16, 0x80	; 128
     e86:	18 e4       	ldi	r17, 0x48	; 72
     e88:	11 c0       	rjmp	.+34     	; 0xeac <GraphLcdCharactorSet+0xa4>
     e8a:	00 e8       	ldi	r16, 0x80	; 128
     e8c:	10 e5       	ldi	r17, 0x50	; 80
     e8e:	0e c0       	rjmp	.+28     	; 0xeac <GraphLcdCharactorSet+0xa4>
		case 10 : gSet = 0x80; gPoz = 0x50; break; case 11 : gSet = 0x80; gPoz = 0x58; break;
     e90:	00 e8       	ldi	r16, 0x80	; 128
     e92:	18 e5       	ldi	r17, 0x58	; 88
     e94:	0b c0       	rjmp	.+22     	; 0xeac <GraphLcdCharactorSet+0xa4>
     e96:	00 e8       	ldi	r16, 0x80	; 128
     e98:	10 e6       	ldi	r17, 0x60	; 96
     e9a:	08 c0       	rjmp	.+16     	; 0xeac <GraphLcdCharactorSet+0xa4>
		case 12 : gSet = 0x80; gPoz = 0x60; break; case 13 : gSet = 0x80; gPoz = 0x68; break;
     e9c:	00 e8       	ldi	r16, 0x80	; 128
     e9e:	18 e6       	ldi	r17, 0x68	; 104
     ea0:	05 c0       	rjmp	.+10     	; 0xeac <GraphLcdCharactorSet+0xa4>
     ea2:	00 e8       	ldi	r16, 0x80	; 128
     ea4:	10 e7       	ldi	r17, 0x70	; 112
     ea6:	02 c0       	rjmp	.+4      	; 0xeac <GraphLcdCharactorSet+0xa4>
		case 14 : gSet = 0x80; gPoz = 0x70; break; case 15 : gSet = 0x80; gPoz = 0x78; break;
     ea8:	00 e8       	ldi	r16, 0x80	; 128
     eaa:	18 e7       	ldi	r17, 0x78	; 120
     eac:	ea 01       	movw	r28, r20
     eae:	ff 24       	eor	r15, r15
	}

	for(i=0;i<8;i++) {
		GLcdCmd(0xC0,0xB8 + line );
     eb0:	88 eb       	ldi	r24, 0xB8	; 184
     eb2:	e8 2e       	mov	r14, r24
     eb4:	e7 0e       	add	r14, r23
     eb6:	80 ec       	ldi	r24, 0xC0	; 192
     eb8:	6e 2d       	mov	r22, r14
     eba:	0e 94 ea 06 	call	0xdd4	; 0xdd4 <GLcdCmd>
		//GLcdCmd(0x40,gPoz + i); // 요녀석을 내가 아래와 같이 수정함
		GLcdCmd(0xC0,gPoz + i);
     ebe:	6f 2d       	mov	r22, r15
     ec0:	61 0f       	add	r22, r17
     ec2:	80 ec       	ldi	r24, 0xC0	; 192
     ec4:	0e 94 ea 06 	call	0xdd4	; 0xdd4 <GLcdCmd>
		GLcdSetData(gSet,Charactor[i]);
     ec8:	69 91       	ld	r22, Y+
     eca:	80 2f       	mov	r24, r16
     ecc:	90 e0       	ldi	r25, 0x00	; 0
     ece:	70 e0       	ldi	r23, 0x00	; 0
     ed0:	0e 94 cf 06 	call	0xd9e	; 0xd9e <GLcdSetData>
		case 10 : gSet = 0x80; gPoz = 0x50; break; case 11 : gSet = 0x80; gPoz = 0x58; break;
		case 12 : gSet = 0x80; gPoz = 0x60; break; case 13 : gSet = 0x80; gPoz = 0x68; break;
		case 14 : gSet = 0x80; gPoz = 0x70; break; case 15 : gSet = 0x80; gPoz = 0x78; break;
	}

	for(i=0;i<8;i++) {
     ed4:	f3 94       	inc	r15
     ed6:	88 e0       	ldi	r24, 0x08	; 8
     ed8:	f8 16       	cp	r15, r24
     eda:	69 f7       	brne	.-38     	; 0xeb6 <GraphLcdCharactorSet+0xae>
		GLcdCmd(0xC0,0xB8 + line );
		//GLcdCmd(0x40,gPoz + i); // 요녀석을 내가 아래와 같이 수정함
		GLcdCmd(0xC0,gPoz + i);
		GLcdSetData(gSet,Charactor[i]);
	}
}
     edc:	df 91       	pop	r29
     ede:	cf 91       	pop	r28
     ee0:	1f 91       	pop	r17
     ee2:	0f 91       	pop	r16
     ee4:	ff 90       	pop	r15
     ee6:	ef 90       	pop	r14
     ee8:	08 95       	ret

00000eea <GLcdStringPrint>:
// 기본 예제 용 함수 
void GLcdStringPrint( unsigned char line, 
											 unsigned char *c0 ,unsigned char *c1 ,unsigned char *c2 ,unsigned char *c3 ,
                       unsigned char *c4 ,unsigned char *c5 ,unsigned char *c6 ,unsigned char *c7 ,
                       unsigned char *c8 ,unsigned char *c9 ,unsigned char *c10 ,unsigned char *c11 ,
                       unsigned char *c12 ,unsigned char *c13 ,unsigned char *c14  ,unsigned char *c15 ){
     eea:	2f 92       	push	r2
     eec:	3f 92       	push	r3
     eee:	4f 92       	push	r4
     ef0:	5f 92       	push	r5
     ef2:	6f 92       	push	r6
     ef4:	7f 92       	push	r7
     ef6:	8f 92       	push	r8
     ef8:	9f 92       	push	r9
     efa:	af 92       	push	r10
     efc:	bf 92       	push	r11
     efe:	cf 92       	push	r12
     f00:	df 92       	push	r13
     f02:	ef 92       	push	r14
     f04:	ff 92       	push	r15
     f06:	0f 93       	push	r16
     f08:	1f 93       	push	r17
     f0a:	df 93       	push	r29
     f0c:	cf 93       	push	r28
     f0e:	00 d0       	rcall	.+0      	; 0xf10 <GLcdStringPrint+0x26>
     f10:	00 d0       	rcall	.+0      	; 0xf12 <GLcdStringPrint+0x28>
     f12:	cd b7       	in	r28, 0x3d	; 61
     f14:	de b7       	in	r29, 0x3e	; 62
     f16:	3b 01       	movw	r6, r22
     f18:	2a 01       	movw	r4, r20
     f1a:	19 01       	movw	r2, r18
     f1c:	1a 83       	std	Y+2, r17	; 0x02
     f1e:	09 83       	std	Y+1, r16	; 0x01
     f20:	fc 82       	std	Y+4, r15	; 0x04
     f22:	eb 82       	std	Y+3, r14	; 0x03
     f24:	00 e0       	ldi	r16, 0x00	; 0
     f26:	10 e0       	ldi	r17, 0x00	; 0
 
	unsigned char i ; 
	
  for(i=0; i<8  ; i++){
  	GLcdCmd(0xC0,0xB8 + line );
     f28:	98 eb       	ldi	r25, 0xB8	; 184
     f2a:	f9 2e       	mov	r15, r25
     f2c:	f8 0e       	add	r15, r24
     f2e:	80 ec       	ldi	r24, 0xC0	; 192
     f30:	6f 2d       	mov	r22, r15
     f32:	0e 94 ea 06 	call	0xdd4	; 0xdd4 <GLcdCmd>
		GLcdCmd(0x40,0x40 + i);
     f36:	60 2f       	mov	r22, r16
     f38:	60 5c       	subi	r22, 0xC0	; 192
     f3a:	80 e4       	ldi	r24, 0x40	; 64
     f3c:	0e 94 ea 06 	call	0xdd4	; 0xdd4 <GLcdCmd>
		GLcdSetData(0x40,c0[i]);
     f40:	f3 01       	movw	r30, r6
     f42:	e0 0f       	add	r30, r16
     f44:	f1 1f       	adc	r31, r17
     f46:	60 81       	ld	r22, Z
     f48:	80 e4       	ldi	r24, 0x40	; 64
     f4a:	90 e0       	ldi	r25, 0x00	; 0
     f4c:	70 e0       	ldi	r23, 0x00	; 0
     f4e:	0e 94 cf 06 	call	0xd9e	; 0xd9e <GLcdSetData>
     f52:	0f 5f       	subi	r16, 0xFF	; 255
     f54:	1f 4f       	sbci	r17, 0xFF	; 255
                       unsigned char *c8 ,unsigned char *c9 ,unsigned char *c10 ,unsigned char *c11 ,
                       unsigned char *c12 ,unsigned char *c13 ,unsigned char *c14  ,unsigned char *c15 ){
 
	unsigned char i ; 
	
  for(i=0; i<8  ; i++){
     f56:	08 30       	cpi	r16, 0x08	; 8
     f58:	11 05       	cpc	r17, r1
     f5a:	49 f7       	brne	.-46     	; 0xf2e <GLcdStringPrint+0x44>
     f5c:	00 e0       	ldi	r16, 0x00	; 0
     f5e:	10 e0       	ldi	r17, 0x00	; 0
  	GLcdCmd(0xC0,0xB8 + line );
		GLcdCmd(0x40,0x40 + i);
		GLcdSetData(0x40,c0[i]);
	}
	for(i=0; i<8  ; i++){
  	GLcdCmd(0xC0,0xB8 + line );
     f60:	80 ec       	ldi	r24, 0xC0	; 192
     f62:	6f 2d       	mov	r22, r15
     f64:	0e 94 ea 06 	call	0xdd4	; 0xdd4 <GLcdCmd>
		GLcdCmd(0x40,0x48 + i);
     f68:	60 2f       	mov	r22, r16
     f6a:	68 5b       	subi	r22, 0xB8	; 184
     f6c:	80 e4       	ldi	r24, 0x40	; 64
     f6e:	0e 94 ea 06 	call	0xdd4	; 0xdd4 <GLcdCmd>
		GLcdSetData(0x40,c1[i]);
     f72:	f2 01       	movw	r30, r4
     f74:	e0 0f       	add	r30, r16
     f76:	f1 1f       	adc	r31, r17
     f78:	60 81       	ld	r22, Z
     f7a:	80 e4       	ldi	r24, 0x40	; 64
     f7c:	90 e0       	ldi	r25, 0x00	; 0
     f7e:	70 e0       	ldi	r23, 0x00	; 0
     f80:	0e 94 cf 06 	call	0xd9e	; 0xd9e <GLcdSetData>
     f84:	0f 5f       	subi	r16, 0xFF	; 255
     f86:	1f 4f       	sbci	r17, 0xFF	; 255
  for(i=0; i<8  ; i++){
  	GLcdCmd(0xC0,0xB8 + line );
		GLcdCmd(0x40,0x40 + i);
		GLcdSetData(0x40,c0[i]);
	}
	for(i=0; i<8  ; i++){
     f88:	08 30       	cpi	r16, 0x08	; 8
     f8a:	11 05       	cpc	r17, r1
     f8c:	49 f7       	brne	.-46     	; 0xf60 <GLcdStringPrint+0x76>
     f8e:	00 e0       	ldi	r16, 0x00	; 0
     f90:	10 e0       	ldi	r17, 0x00	; 0
  	GLcdCmd(0xC0,0xB8 + line );
		GLcdCmd(0x40,0x48 + i);
		GLcdSetData(0x40,c1[i]);
	}
	for(i=0; i<8  ; i++){
  	GLcdCmd(0xC0,0xB8 + line );
     f92:	80 ec       	ldi	r24, 0xC0	; 192
     f94:	6f 2d       	mov	r22, r15
     f96:	0e 94 ea 06 	call	0xdd4	; 0xdd4 <GLcdCmd>
		GLcdCmd(0x40,0x50 + i);
     f9a:	60 2f       	mov	r22, r16
     f9c:	60 5b       	subi	r22, 0xB0	; 176
     f9e:	80 e4       	ldi	r24, 0x40	; 64
     fa0:	0e 94 ea 06 	call	0xdd4	; 0xdd4 <GLcdCmd>
		GLcdSetData(0x40,c2[i]);
     fa4:	f1 01       	movw	r30, r2
     fa6:	e0 0f       	add	r30, r16
     fa8:	f1 1f       	adc	r31, r17
     faa:	60 81       	ld	r22, Z
     fac:	80 e4       	ldi	r24, 0x40	; 64
     fae:	90 e0       	ldi	r25, 0x00	; 0
     fb0:	70 e0       	ldi	r23, 0x00	; 0
     fb2:	0e 94 cf 06 	call	0xd9e	; 0xd9e <GLcdSetData>
     fb6:	0f 5f       	subi	r16, 0xFF	; 255
     fb8:	1f 4f       	sbci	r17, 0xFF	; 255
	for(i=0; i<8  ; i++){
  	GLcdCmd(0xC0,0xB8 + line );
		GLcdCmd(0x40,0x48 + i);
		GLcdSetData(0x40,c1[i]);
	}
	for(i=0; i<8  ; i++){
     fba:	08 30       	cpi	r16, 0x08	; 8
     fbc:	11 05       	cpc	r17, r1
     fbe:	49 f7       	brne	.-46     	; 0xf92 <GLcdStringPrint+0xa8>
     fc0:	00 e0       	ldi	r16, 0x00	; 0
     fc2:	10 e0       	ldi	r17, 0x00	; 0
  	GLcdCmd(0xC0,0xB8 + line );
		GLcdCmd(0x40,0x50 + i);
		GLcdSetData(0x40,c2[i]);
	}
	for(i=0; i<8  ; i++){
  	GLcdCmd(0xC0,0xB8 + line );
     fc4:	80 ec       	ldi	r24, 0xC0	; 192
     fc6:	6f 2d       	mov	r22, r15
     fc8:	0e 94 ea 06 	call	0xdd4	; 0xdd4 <GLcdCmd>
		GLcdCmd(0x40,0x58 + i);
     fcc:	60 2f       	mov	r22, r16
     fce:	68 5a       	subi	r22, 0xA8	; 168
     fd0:	80 e4       	ldi	r24, 0x40	; 64
     fd2:	0e 94 ea 06 	call	0xdd4	; 0xdd4 <GLcdCmd>
		GLcdSetData(0x40,c3[i]);
     fd6:	e9 81       	ldd	r30, Y+1	; 0x01
     fd8:	fa 81       	ldd	r31, Y+2	; 0x02
     fda:	e0 0f       	add	r30, r16
     fdc:	f1 1f       	adc	r31, r17
     fde:	60 81       	ld	r22, Z
     fe0:	80 e4       	ldi	r24, 0x40	; 64
     fe2:	90 e0       	ldi	r25, 0x00	; 0
     fe4:	70 e0       	ldi	r23, 0x00	; 0
     fe6:	0e 94 cf 06 	call	0xd9e	; 0xd9e <GLcdSetData>
     fea:	0f 5f       	subi	r16, 0xFF	; 255
     fec:	1f 4f       	sbci	r17, 0xFF	; 255
	for(i=0; i<8  ; i++){
  	GLcdCmd(0xC0,0xB8 + line );
		GLcdCmd(0x40,0x50 + i);
		GLcdSetData(0x40,c2[i]);
	}
	for(i=0; i<8  ; i++){
     fee:	08 30       	cpi	r16, 0x08	; 8
     ff0:	11 05       	cpc	r17, r1
     ff2:	41 f7       	brne	.-48     	; 0xfc4 <GLcdStringPrint+0xda>
     ff4:	00 e0       	ldi	r16, 0x00	; 0
     ff6:	10 e0       	ldi	r17, 0x00	; 0
  	GLcdCmd(0xC0,0xB8 + line );
		GLcdCmd(0x40,0x58 + i);
		GLcdSetData(0x40,c3[i]);
	}
	for(i=0; i<8  ; i++){
  	GLcdCmd(0xC0,0xB8 + line );
     ff8:	80 ec       	ldi	r24, 0xC0	; 192
     ffa:	6f 2d       	mov	r22, r15
     ffc:	0e 94 ea 06 	call	0xdd4	; 0xdd4 <GLcdCmd>
		GLcdCmd(0x40,0x60 + i);
    1000:	60 2f       	mov	r22, r16
    1002:	60 5a       	subi	r22, 0xA0	; 160
    1004:	80 e4       	ldi	r24, 0x40	; 64
    1006:	0e 94 ea 06 	call	0xdd4	; 0xdd4 <GLcdCmd>
		GLcdSetData(0x40,c4[i]);
    100a:	eb 81       	ldd	r30, Y+3	; 0x03
    100c:	fc 81       	ldd	r31, Y+4	; 0x04
    100e:	e0 0f       	add	r30, r16
    1010:	f1 1f       	adc	r31, r17
    1012:	60 81       	ld	r22, Z
    1014:	80 e4       	ldi	r24, 0x40	; 64
    1016:	90 e0       	ldi	r25, 0x00	; 0
    1018:	70 e0       	ldi	r23, 0x00	; 0
    101a:	0e 94 cf 06 	call	0xd9e	; 0xd9e <GLcdSetData>
    101e:	0f 5f       	subi	r16, 0xFF	; 255
    1020:	1f 4f       	sbci	r17, 0xFF	; 255
	for(i=0; i<8  ; i++){
  	GLcdCmd(0xC0,0xB8 + line );
		GLcdCmd(0x40,0x58 + i);
		GLcdSetData(0x40,c3[i]);
	}
	for(i=0; i<8  ; i++){
    1022:	08 30       	cpi	r16, 0x08	; 8
    1024:	11 05       	cpc	r17, r1
    1026:	41 f7       	brne	.-48     	; 0xff8 <GLcdStringPrint+0x10e>
    1028:	00 e0       	ldi	r16, 0x00	; 0
    102a:	10 e0       	ldi	r17, 0x00	; 0
  	GLcdCmd(0xC0,0xB8 + line );
		GLcdCmd(0x40,0x60 + i);
		GLcdSetData(0x40,c4[i]);
	}
	for(i=0; i<8  ; i++){
  	GLcdCmd(0xC0,0xB8 + line );
    102c:	80 ec       	ldi	r24, 0xC0	; 192
    102e:	6f 2d       	mov	r22, r15
    1030:	0e 94 ea 06 	call	0xdd4	; 0xdd4 <GLcdCmd>
		GLcdCmd(0x40,0x68 + i);
    1034:	60 2f       	mov	r22, r16
    1036:	68 59       	subi	r22, 0x98	; 152
    1038:	80 e4       	ldi	r24, 0x40	; 64
    103a:	0e 94 ea 06 	call	0xdd4	; 0xdd4 <GLcdCmd>
		GLcdSetData(0x40,c5[i]);
    103e:	f6 01       	movw	r30, r12
    1040:	e0 0f       	add	r30, r16
    1042:	f1 1f       	adc	r31, r17
    1044:	60 81       	ld	r22, Z
    1046:	80 e4       	ldi	r24, 0x40	; 64
    1048:	90 e0       	ldi	r25, 0x00	; 0
    104a:	70 e0       	ldi	r23, 0x00	; 0
    104c:	0e 94 cf 06 	call	0xd9e	; 0xd9e <GLcdSetData>
    1050:	0f 5f       	subi	r16, 0xFF	; 255
    1052:	1f 4f       	sbci	r17, 0xFF	; 255
	for(i=0; i<8  ; i++){
  	GLcdCmd(0xC0,0xB8 + line );
		GLcdCmd(0x40,0x60 + i);
		GLcdSetData(0x40,c4[i]);
	}
	for(i=0; i<8  ; i++){
    1054:	08 30       	cpi	r16, 0x08	; 8
    1056:	11 05       	cpc	r17, r1
    1058:	49 f7       	brne	.-46     	; 0x102c <GLcdStringPrint+0x142>
    105a:	00 e0       	ldi	r16, 0x00	; 0
    105c:	10 e0       	ldi	r17, 0x00	; 0
  	GLcdCmd(0xC0,0xB8 + line );
		GLcdCmd(0x40,0x68 + i);
		GLcdSetData(0x40,c5[i]);
	}
	for(i=0; i<8  ; i++){
  	GLcdCmd(0xC0,0xB8 + line );
    105e:	80 ec       	ldi	r24, 0xC0	; 192
    1060:	6f 2d       	mov	r22, r15
    1062:	0e 94 ea 06 	call	0xdd4	; 0xdd4 <GLcdCmd>
		GLcdCmd(0x40,0x70 + i);
    1066:	60 2f       	mov	r22, r16
    1068:	60 59       	subi	r22, 0x90	; 144
    106a:	80 e4       	ldi	r24, 0x40	; 64
    106c:	0e 94 ea 06 	call	0xdd4	; 0xdd4 <GLcdCmd>
		GLcdSetData(0x40,c6[i]);
    1070:	f5 01       	movw	r30, r10
    1072:	e0 0f       	add	r30, r16
    1074:	f1 1f       	adc	r31, r17
    1076:	60 81       	ld	r22, Z
    1078:	80 e4       	ldi	r24, 0x40	; 64
    107a:	90 e0       	ldi	r25, 0x00	; 0
    107c:	70 e0       	ldi	r23, 0x00	; 0
    107e:	0e 94 cf 06 	call	0xd9e	; 0xd9e <GLcdSetData>
    1082:	0f 5f       	subi	r16, 0xFF	; 255
    1084:	1f 4f       	sbci	r17, 0xFF	; 255
	for(i=0; i<8  ; i++){
  	GLcdCmd(0xC0,0xB8 + line );
		GLcdCmd(0x40,0x68 + i);
		GLcdSetData(0x40,c5[i]);
	}
	for(i=0; i<8  ; i++){
    1086:	08 30       	cpi	r16, 0x08	; 8
    1088:	11 05       	cpc	r17, r1
    108a:	49 f7       	brne	.-46     	; 0x105e <GLcdStringPrint+0x174>
    108c:	00 e0       	ldi	r16, 0x00	; 0
    108e:	10 e0       	ldi	r17, 0x00	; 0
		GLcdCmd(0x40,0x70 + i);
		GLcdSetData(0x40,c6[i]);
	}
	 
	for(i=0; i<8  ; i++){
  	GLcdCmd(0xC0,0xB8 + line );
    1090:	80 ec       	ldi	r24, 0xC0	; 192
    1092:	6f 2d       	mov	r22, r15
    1094:	0e 94 ea 06 	call	0xdd4	; 0xdd4 <GLcdCmd>
		GLcdCmd(0x40,0x78 + i);
    1098:	60 2f       	mov	r22, r16
    109a:	68 58       	subi	r22, 0x88	; 136
    109c:	80 e4       	ldi	r24, 0x40	; 64
    109e:	0e 94 ea 06 	call	0xdd4	; 0xdd4 <GLcdCmd>
		GLcdSetData(0x40,c7[i]);
    10a2:	f4 01       	movw	r30, r8
    10a4:	e0 0f       	add	r30, r16
    10a6:	f1 1f       	adc	r31, r17
    10a8:	60 81       	ld	r22, Z
    10aa:	80 e4       	ldi	r24, 0x40	; 64
    10ac:	90 e0       	ldi	r25, 0x00	; 0
    10ae:	70 e0       	ldi	r23, 0x00	; 0
    10b0:	0e 94 cf 06 	call	0xd9e	; 0xd9e <GLcdSetData>
    10b4:	0f 5f       	subi	r16, 0xFF	; 255
    10b6:	1f 4f       	sbci	r17, 0xFF	; 255
  	GLcdCmd(0xC0,0xB8 + line );
		GLcdCmd(0x40,0x70 + i);
		GLcdSetData(0x40,c6[i]);
	}
	 
	for(i=0; i<8  ; i++){
    10b8:	08 30       	cpi	r16, 0x08	; 8
    10ba:	11 05       	cpc	r17, r1
    10bc:	49 f7       	brne	.-46     	; 0x1090 <GLcdStringPrint+0x1a6>
    10be:	00 e0       	ldi	r16, 0x00	; 0
    10c0:	10 e0       	ldi	r17, 0x00	; 0
		GLcdSetData(0x40,c7[i]);
	}
	 
	
  for(i=0; i<8  ; i++){
  	GLcdCmd(0xC0,0xB8 + line );
    10c2:	80 ec       	ldi	r24, 0xC0	; 192
    10c4:	6f 2d       	mov	r22, r15
    10c6:	0e 94 ea 06 	call	0xdd4	; 0xdd4 <GLcdCmd>
		GLcdCmd(0x40,0x40 + i);
    10ca:	60 2f       	mov	r22, r16
    10cc:	60 5c       	subi	r22, 0xC0	; 192
    10ce:	80 e4       	ldi	r24, 0x40	; 64
    10d0:	0e 94 ea 06 	call	0xdd4	; 0xdd4 <GLcdCmd>
		GLcdSetData(0x80,c8[i]);
    10d4:	e9 8d       	ldd	r30, Y+25	; 0x19
    10d6:	fa 8d       	ldd	r31, Y+26	; 0x1a
    10d8:	e0 0f       	add	r30, r16
    10da:	f1 1f       	adc	r31, r17
    10dc:	60 81       	ld	r22, Z
    10de:	80 e8       	ldi	r24, 0x80	; 128
    10e0:	90 e0       	ldi	r25, 0x00	; 0
    10e2:	70 e0       	ldi	r23, 0x00	; 0
    10e4:	0e 94 cf 06 	call	0xd9e	; 0xd9e <GLcdSetData>
    10e8:	0f 5f       	subi	r16, 0xFF	; 255
    10ea:	1f 4f       	sbci	r17, 0xFF	; 255
		GLcdCmd(0x40,0x78 + i);
		GLcdSetData(0x40,c7[i]);
	}
	 
	
  for(i=0; i<8  ; i++){
    10ec:	08 30       	cpi	r16, 0x08	; 8
    10ee:	11 05       	cpc	r17, r1
    10f0:	41 f7       	brne	.-48     	; 0x10c2 <GLcdStringPrint+0x1d8>
    10f2:	00 e0       	ldi	r16, 0x00	; 0
    10f4:	10 e0       	ldi	r17, 0x00	; 0
  	GLcdCmd(0xC0,0xB8 + line );
		GLcdCmd(0x40,0x40 + i);
		GLcdSetData(0x80,c8[i]);
	}
	for(i=0; i<8  ; i++){
  	GLcdCmd(0xC0,0xB8 + line );
    10f6:	80 ec       	ldi	r24, 0xC0	; 192
    10f8:	6f 2d       	mov	r22, r15
    10fa:	0e 94 ea 06 	call	0xdd4	; 0xdd4 <GLcdCmd>
		GLcdCmd(0x40,0x48 + i);
    10fe:	60 2f       	mov	r22, r16
    1100:	68 5b       	subi	r22, 0xB8	; 184
    1102:	80 e4       	ldi	r24, 0x40	; 64
    1104:	0e 94 ea 06 	call	0xdd4	; 0xdd4 <GLcdCmd>
		GLcdSetData(0x80,c9[i]);
    1108:	eb 8d       	ldd	r30, Y+27	; 0x1b
    110a:	fc 8d       	ldd	r31, Y+28	; 0x1c
    110c:	e0 0f       	add	r30, r16
    110e:	f1 1f       	adc	r31, r17
    1110:	60 81       	ld	r22, Z
    1112:	80 e8       	ldi	r24, 0x80	; 128
    1114:	90 e0       	ldi	r25, 0x00	; 0
    1116:	70 e0       	ldi	r23, 0x00	; 0
    1118:	0e 94 cf 06 	call	0xd9e	; 0xd9e <GLcdSetData>
    111c:	0f 5f       	subi	r16, 0xFF	; 255
    111e:	1f 4f       	sbci	r17, 0xFF	; 255
  for(i=0; i<8  ; i++){
  	GLcdCmd(0xC0,0xB8 + line );
		GLcdCmd(0x40,0x40 + i);
		GLcdSetData(0x80,c8[i]);
	}
	for(i=0; i<8  ; i++){
    1120:	08 30       	cpi	r16, 0x08	; 8
    1122:	11 05       	cpc	r17, r1
    1124:	41 f7       	brne	.-48     	; 0x10f6 <GLcdStringPrint+0x20c>
    1126:	00 e0       	ldi	r16, 0x00	; 0
    1128:	10 e0       	ldi	r17, 0x00	; 0
  	GLcdCmd(0xC0,0xB8 + line );
		GLcdCmd(0x40,0x48 + i);
		GLcdSetData(0x80,c9[i]);
	}
	for(i=0; i<8  ; i++){
  	GLcdCmd(0xC0,0xB8 + line );
    112a:	80 ec       	ldi	r24, 0xC0	; 192
    112c:	6f 2d       	mov	r22, r15
    112e:	0e 94 ea 06 	call	0xdd4	; 0xdd4 <GLcdCmd>
		GLcdCmd(0x40,0x50 + i);
    1132:	60 2f       	mov	r22, r16
    1134:	60 5b       	subi	r22, 0xB0	; 176
    1136:	80 e4       	ldi	r24, 0x40	; 64
    1138:	0e 94 ea 06 	call	0xdd4	; 0xdd4 <GLcdCmd>
		GLcdSetData(0x80,c10[i]);
    113c:	ed 8d       	ldd	r30, Y+29	; 0x1d
    113e:	fe 8d       	ldd	r31, Y+30	; 0x1e
    1140:	e0 0f       	add	r30, r16
    1142:	f1 1f       	adc	r31, r17
    1144:	60 81       	ld	r22, Z
    1146:	80 e8       	ldi	r24, 0x80	; 128
    1148:	90 e0       	ldi	r25, 0x00	; 0
    114a:	70 e0       	ldi	r23, 0x00	; 0
    114c:	0e 94 cf 06 	call	0xd9e	; 0xd9e <GLcdSetData>
    1150:	0f 5f       	subi	r16, 0xFF	; 255
    1152:	1f 4f       	sbci	r17, 0xFF	; 255
	for(i=0; i<8  ; i++){
  	GLcdCmd(0xC0,0xB8 + line );
		GLcdCmd(0x40,0x48 + i);
		GLcdSetData(0x80,c9[i]);
	}
	for(i=0; i<8  ; i++){
    1154:	08 30       	cpi	r16, 0x08	; 8
    1156:	11 05       	cpc	r17, r1
    1158:	41 f7       	brne	.-48     	; 0x112a <__stack+0x2b>
    115a:	00 e0       	ldi	r16, 0x00	; 0
    115c:	10 e0       	ldi	r17, 0x00	; 0
  	GLcdCmd(0xC0,0xB8 + line );
		GLcdCmd(0x40,0x50 + i);
		GLcdSetData(0x80,c10[i]);
	}
	for(i=0; i<8  ; i++){
  	GLcdCmd(0xC0,0xB8 + line );
    115e:	80 ec       	ldi	r24, 0xC0	; 192
    1160:	6f 2d       	mov	r22, r15
    1162:	0e 94 ea 06 	call	0xdd4	; 0xdd4 <GLcdCmd>
		GLcdCmd(0x40,0x58 + i);
    1166:	60 2f       	mov	r22, r16
    1168:	68 5a       	subi	r22, 0xA8	; 168
    116a:	80 e4       	ldi	r24, 0x40	; 64
    116c:	0e 94 ea 06 	call	0xdd4	; 0xdd4 <GLcdCmd>
		GLcdSetData(0x80,c11[i]);
    1170:	ef 8d       	ldd	r30, Y+31	; 0x1f
    1172:	f8 a1       	ldd	r31, Y+32	; 0x20
    1174:	e0 0f       	add	r30, r16
    1176:	f1 1f       	adc	r31, r17
    1178:	60 81       	ld	r22, Z
    117a:	80 e8       	ldi	r24, 0x80	; 128
    117c:	90 e0       	ldi	r25, 0x00	; 0
    117e:	70 e0       	ldi	r23, 0x00	; 0
    1180:	0e 94 cf 06 	call	0xd9e	; 0xd9e <GLcdSetData>
    1184:	0f 5f       	subi	r16, 0xFF	; 255
    1186:	1f 4f       	sbci	r17, 0xFF	; 255
	for(i=0; i<8  ; i++){
  	GLcdCmd(0xC0,0xB8 + line );
		GLcdCmd(0x40,0x50 + i);
		GLcdSetData(0x80,c10[i]);
	}
	for(i=0; i<8  ; i++){
    1188:	08 30       	cpi	r16, 0x08	; 8
    118a:	11 05       	cpc	r17, r1
    118c:	41 f7       	brne	.-48     	; 0x115e <__stack+0x5f>
    118e:	00 e0       	ldi	r16, 0x00	; 0
    1190:	10 e0       	ldi	r17, 0x00	; 0
  	GLcdCmd(0xC0,0xB8 + line );
		GLcdCmd(0x40,0x58 + i);
		GLcdSetData(0x80,c11[i]);
	}
	for(i=0; i<8  ; i++){
  	GLcdCmd(0xC0,0xB8 + line );
    1192:	80 ec       	ldi	r24, 0xC0	; 192
    1194:	6f 2d       	mov	r22, r15
    1196:	0e 94 ea 06 	call	0xdd4	; 0xdd4 <GLcdCmd>
		GLcdCmd(0x40,0x60 + i);
    119a:	60 2f       	mov	r22, r16
    119c:	60 5a       	subi	r22, 0xA0	; 160
    119e:	80 e4       	ldi	r24, 0x40	; 64
    11a0:	0e 94 ea 06 	call	0xdd4	; 0xdd4 <GLcdCmd>
		GLcdSetData(0x80,c12[i]);
    11a4:	e9 a1       	ldd	r30, Y+33	; 0x21
    11a6:	fa a1       	ldd	r31, Y+34	; 0x22
    11a8:	e0 0f       	add	r30, r16
    11aa:	f1 1f       	adc	r31, r17
    11ac:	60 81       	ld	r22, Z
    11ae:	80 e8       	ldi	r24, 0x80	; 128
    11b0:	90 e0       	ldi	r25, 0x00	; 0
    11b2:	70 e0       	ldi	r23, 0x00	; 0
    11b4:	0e 94 cf 06 	call	0xd9e	; 0xd9e <GLcdSetData>
    11b8:	0f 5f       	subi	r16, 0xFF	; 255
    11ba:	1f 4f       	sbci	r17, 0xFF	; 255
	for(i=0; i<8  ; i++){
  	GLcdCmd(0xC0,0xB8 + line );
		GLcdCmd(0x40,0x58 + i);
		GLcdSetData(0x80,c11[i]);
	}
	for(i=0; i<8  ; i++){
    11bc:	08 30       	cpi	r16, 0x08	; 8
    11be:	11 05       	cpc	r17, r1
    11c0:	41 f7       	brne	.-48     	; 0x1192 <__stack+0x93>
    11c2:	00 e0       	ldi	r16, 0x00	; 0
    11c4:	10 e0       	ldi	r17, 0x00	; 0
  	GLcdCmd(0xC0,0xB8 + line );
		GLcdCmd(0x40,0x60 + i);
		GLcdSetData(0x80,c12[i]);
	}
	for(i=0; i<8  ; i++){
  	GLcdCmd(0xC0,0xB8 + line );
    11c6:	80 ec       	ldi	r24, 0xC0	; 192
    11c8:	6f 2d       	mov	r22, r15
    11ca:	0e 94 ea 06 	call	0xdd4	; 0xdd4 <GLcdCmd>
		GLcdCmd(0x40,0x68 + i);
    11ce:	60 2f       	mov	r22, r16
    11d0:	68 59       	subi	r22, 0x98	; 152
    11d2:	80 e4       	ldi	r24, 0x40	; 64
    11d4:	0e 94 ea 06 	call	0xdd4	; 0xdd4 <GLcdCmd>
		GLcdSetData(0x80,c13[i]);
    11d8:	eb a1       	ldd	r30, Y+35	; 0x23
    11da:	fc a1       	ldd	r31, Y+36	; 0x24
    11dc:	e0 0f       	add	r30, r16
    11de:	f1 1f       	adc	r31, r17
    11e0:	60 81       	ld	r22, Z
    11e2:	80 e8       	ldi	r24, 0x80	; 128
    11e4:	90 e0       	ldi	r25, 0x00	; 0
    11e6:	70 e0       	ldi	r23, 0x00	; 0
    11e8:	0e 94 cf 06 	call	0xd9e	; 0xd9e <GLcdSetData>
    11ec:	0f 5f       	subi	r16, 0xFF	; 255
    11ee:	1f 4f       	sbci	r17, 0xFF	; 255
	for(i=0; i<8  ; i++){
  	GLcdCmd(0xC0,0xB8 + line );
		GLcdCmd(0x40,0x60 + i);
		GLcdSetData(0x80,c12[i]);
	}
	for(i=0; i<8  ; i++){
    11f0:	08 30       	cpi	r16, 0x08	; 8
    11f2:	11 05       	cpc	r17, r1
    11f4:	41 f7       	brne	.-48     	; 0x11c6 <__stack+0xc7>
    11f6:	00 e0       	ldi	r16, 0x00	; 0
    11f8:	10 e0       	ldi	r17, 0x00	; 0
  	GLcdCmd(0xC0,0xB8 + line );
		GLcdCmd(0x40,0x68 + i);
		GLcdSetData(0x80,c13[i]);
	}
	for(i=0; i<8  ; i++){
  	GLcdCmd(0xC0,0xB8 + line );
    11fa:	80 ec       	ldi	r24, 0xC0	; 192
    11fc:	6f 2d       	mov	r22, r15
    11fe:	0e 94 ea 06 	call	0xdd4	; 0xdd4 <GLcdCmd>
		GLcdCmd(0x40,0x70 + i);
    1202:	60 2f       	mov	r22, r16
    1204:	60 59       	subi	r22, 0x90	; 144
    1206:	80 e4       	ldi	r24, 0x40	; 64
    1208:	0e 94 ea 06 	call	0xdd4	; 0xdd4 <GLcdCmd>
		GLcdSetData(0x80,c14[i]);
    120c:	ed a1       	ldd	r30, Y+37	; 0x25
    120e:	fe a1       	ldd	r31, Y+38	; 0x26
    1210:	e0 0f       	add	r30, r16
    1212:	f1 1f       	adc	r31, r17
    1214:	60 81       	ld	r22, Z
    1216:	80 e8       	ldi	r24, 0x80	; 128
    1218:	90 e0       	ldi	r25, 0x00	; 0
    121a:	70 e0       	ldi	r23, 0x00	; 0
    121c:	0e 94 cf 06 	call	0xd9e	; 0xd9e <GLcdSetData>
    1220:	0f 5f       	subi	r16, 0xFF	; 255
    1222:	1f 4f       	sbci	r17, 0xFF	; 255
	for(i=0; i<8  ; i++){
  	GLcdCmd(0xC0,0xB8 + line );
		GLcdCmd(0x40,0x68 + i);
		GLcdSetData(0x80,c13[i]);
	}
	for(i=0; i<8  ; i++){
    1224:	08 30       	cpi	r16, 0x08	; 8
    1226:	11 05       	cpc	r17, r1
    1228:	41 f7       	brne	.-48     	; 0x11fa <__stack+0xfb>
    122a:	00 e0       	ldi	r16, 0x00	; 0
    122c:	10 e0       	ldi	r17, 0x00	; 0
  	GLcdCmd(0xC0,0xB8 + line );
		GLcdCmd(0x40,0x70 + i);
		GLcdSetData(0x80,c14[i]);
	}
	for(i=0; i<8  ; i++){
  	GLcdCmd(0xC0,0xB8 + line );
    122e:	80 ec       	ldi	r24, 0xC0	; 192
    1230:	6f 2d       	mov	r22, r15
    1232:	0e 94 ea 06 	call	0xdd4	; 0xdd4 <GLcdCmd>
		GLcdCmd(0x40,0x78 + i);
    1236:	60 2f       	mov	r22, r16
    1238:	68 58       	subi	r22, 0x88	; 136
    123a:	80 e4       	ldi	r24, 0x40	; 64
    123c:	0e 94 ea 06 	call	0xdd4	; 0xdd4 <GLcdCmd>
		GLcdSetData(0x80,c15[i]);
    1240:	ef a1       	ldd	r30, Y+39	; 0x27
    1242:	f8 a5       	ldd	r31, Y+40	; 0x28
    1244:	e0 0f       	add	r30, r16
    1246:	f1 1f       	adc	r31, r17
    1248:	60 81       	ld	r22, Z
    124a:	80 e8       	ldi	r24, 0x80	; 128
    124c:	90 e0       	ldi	r25, 0x00	; 0
    124e:	70 e0       	ldi	r23, 0x00	; 0
    1250:	0e 94 cf 06 	call	0xd9e	; 0xd9e <GLcdSetData>
    1254:	0f 5f       	subi	r16, 0xFF	; 255
    1256:	1f 4f       	sbci	r17, 0xFF	; 255
	for(i=0; i<8  ; i++){
  	GLcdCmd(0xC0,0xB8 + line );
		GLcdCmd(0x40,0x70 + i);
		GLcdSetData(0x80,c14[i]);
	}
	for(i=0; i<8  ; i++){
    1258:	08 30       	cpi	r16, 0x08	; 8
    125a:	11 05       	cpc	r17, r1
    125c:	41 f7       	brne	.-48     	; 0x122e <__stack+0x12f>
  	GLcdCmd(0xC0,0xB8 + line );
		GLcdCmd(0x40,0x78 + i);
		GLcdSetData(0x80,c15[i]);
	}
                          
}  
    125e:	0f 90       	pop	r0
    1260:	0f 90       	pop	r0
    1262:	0f 90       	pop	r0
    1264:	0f 90       	pop	r0
    1266:	cf 91       	pop	r28
    1268:	df 91       	pop	r29
    126a:	1f 91       	pop	r17
    126c:	0f 91       	pop	r16
    126e:	ff 90       	pop	r15
    1270:	ef 90       	pop	r14
    1272:	df 90       	pop	r13
    1274:	cf 90       	pop	r12
    1276:	bf 90       	pop	r11
    1278:	af 90       	pop	r10
    127a:	9f 90       	pop	r9
    127c:	8f 90       	pop	r8
    127e:	7f 90       	pop	r7
    1280:	6f 90       	pop	r6
    1282:	5f 90       	pop	r5
    1284:	4f 90       	pop	r4
    1286:	3f 90       	pop	r3
    1288:	2f 90       	pop	r2
    128a:	08 95       	ret

0000128c <GLcdClr>:
  Delay_us(50);                                                   // wait GLCD busy
}

// 화면 지우기 함수 
void GLcdClr(void)				                                     // clear GLCD screen 
{ unsigned char i, j, x;
    128c:	0f 93       	push	r16
    128e:	1f 93       	push	r17

  LCD_CONTROL = 0x00;				                                     // clear all control signals
    1290:	10 92 00 64 	sts	0x6400, r1
  GLcdCmd(0xC0,0x3F);			                                 // CS1,CS2 display ON
    1294:	80 ec       	ldi	r24, 0xC0	; 192
    1296:	6f e3       	ldi	r22, 0x3F	; 63
    1298:	0e 94 ea 06 	call	0xdd4	; 0xdd4 <GLcdCmd>
  GLcdCmd(0xC0,0xC0);			                                 // CS1,CS2 display position
    129c:	80 ec       	ldi	r24, 0xC0	; 192
    129e:	60 ec       	ldi	r22, 0xC0	; 192
    12a0:	0e 94 ea 06 	call	0xdd4	; 0xdd4 <GLcdCmd>
    12a4:	08 eb       	ldi	r16, 0xB8	; 184

  x = 0xB8;
  for(i = 0; i <= 7; i++){ 
    GLcdCmd(0xC0,x);                                        // X start addtess
    12a6:	80 ec       	ldi	r24, 0xC0	; 192
    12a8:	60 2f       	mov	r22, r16
    12aa:	0e 94 ea 06 	call	0xdd4	; 0xdd4 <GLcdCmd>
  	GLcdCmd(0xC0,0x40);                                     // Y start address
    12ae:	80 ec       	ldi	r24, 0xC0	; 192
    12b0:	60 e4       	ldi	r22, 0x40	; 64
    12b2:	0e 94 ea 06 	call	0xdd4	; 0xdd4 <GLcdCmd>
    12b6:	10 e0       	ldi	r17, 0x00	; 0
    for(j = 0; j <= 63; j++) GLcdSetData(0xC0,0x00);			         // clear CS1 and CS2 screen
    12b8:	80 ec       	ldi	r24, 0xC0	; 192
    12ba:	90 e0       	ldi	r25, 0x00	; 0
    12bc:	60 e0       	ldi	r22, 0x00	; 0
    12be:	70 e0       	ldi	r23, 0x00	; 0
    12c0:	0e 94 cf 06 	call	0xd9e	; 0xd9e <GLcdSetData>
    12c4:	1f 5f       	subi	r17, 0xFF	; 255
    12c6:	10 34       	cpi	r17, 0x40	; 64
    12c8:	b9 f7       	brne	.-18     	; 0x12b8 <GLcdClr+0x2c>
  LCD_CONTROL = 0x00;				                                     // clear all control signals
  GLcdCmd(0xC0,0x3F);			                                 // CS1,CS2 display ON
  GLcdCmd(0xC0,0xC0);			                                 // CS1,CS2 display position

  x = 0xB8;
  for(i = 0; i <= 7; i++){ 
    12ca:	0f 3b       	cpi	r16, 0xBF	; 191
    12cc:	11 f0       	breq	.+4      	; 0x12d2 <GLcdClr+0x46>
    GLcdCmd(0xC0,x);                                        // X start addtess
  	GLcdCmd(0xC0,0x40);                                     // Y start address
    for(j = 0; j <= 63; j++) GLcdSetData(0xC0,0x00);			         // clear CS1 and CS2 screen
    x++;
    12ce:	0f 5f       	subi	r16, 0xFF	; 255
    12d0:	ea cf       	rjmp	.-44     	; 0x12a6 <GLcdClr+0x1a>
  } 
}
    12d2:	1f 91       	pop	r17
    12d4:	0f 91       	pop	r16
    12d6:	08 95       	ret

000012d8 <one_int_to_font>:
}


char* one_int_to_font(ShortInt one_ShortInt)
{
	switch(one_ShortInt) {
    12d8:	84 30       	cpi	r24, 0x04	; 4
    12da:	29 f1       	breq	.+74     	; 0x1326 <one_int_to_font+0x4e>
    12dc:	85 30       	cpi	r24, 0x05	; 5
    12de:	48 f4       	brcc	.+18     	; 0x12f2 <one_int_to_font+0x1a>
    12e0:	81 30       	cpi	r24, 0x01	; 1
    12e2:	c1 f0       	breq	.+48     	; 0x1314 <one_int_to_font+0x3c>
    12e4:	81 30       	cpi	r24, 0x01	; 1
    12e6:	98 f0       	brcs	.+38     	; 0x130e <one_int_to_font+0x36>
    12e8:	82 30       	cpi	r24, 0x02	; 2
    12ea:	b9 f0       	breq	.+46     	; 0x131a <one_int_to_font+0x42>
    12ec:	83 30       	cpi	r24, 0x03	; 3
    12ee:	69 f5       	brne	.+90     	; 0x134a <one_int_to_font+0x72>
    12f0:	17 c0       	rjmp	.+46     	; 0x1320 <one_int_to_font+0x48>
    12f2:	87 30       	cpi	r24, 0x07	; 7
    12f4:	09 f1       	breq	.+66     	; 0x1338 <one_int_to_font+0x60>
    12f6:	88 30       	cpi	r24, 0x08	; 8
    12f8:	28 f4       	brcc	.+10     	; 0x1304 <one_int_to_font+0x2c>
    12fa:	85 30       	cpi	r24, 0x05	; 5
    12fc:	b9 f0       	breq	.+46     	; 0x132c <one_int_to_font+0x54>
    12fe:	86 30       	cpi	r24, 0x06	; 6
    1300:	21 f5       	brne	.+72     	; 0x134a <one_int_to_font+0x72>
    1302:	17 c0       	rjmp	.+46     	; 0x1332 <one_int_to_font+0x5a>
    1304:	88 30       	cpi	r24, 0x08	; 8
    1306:	d9 f0       	breq	.+54     	; 0x133e <one_int_to_font+0x66>
    1308:	89 30       	cpi	r24, 0x09	; 9
    130a:	f9 f4       	brne	.+62     	; 0x134a <one_int_to_font+0x72>
    130c:	1b c0       	rjmp	.+54     	; 0x1344 <one_int_to_font+0x6c>
		case 0 : return font_0;
    130e:	26 e2       	ldi	r18, 0x26	; 38
    1310:	32 e0       	ldi	r19, 0x02	; 2
    1312:	1d c0       	rjmp	.+58     	; 0x134e <one_int_to_font+0x76>
		case 1 : return font_1;
    1314:	2e e2       	ldi	r18, 0x2E	; 46
    1316:	32 e0       	ldi	r19, 0x02	; 2
    1318:	1a c0       	rjmp	.+52     	; 0x134e <one_int_to_font+0x76>
		case 2 : return font_2;
    131a:	26 e3       	ldi	r18, 0x36	; 54
    131c:	32 e0       	ldi	r19, 0x02	; 2
    131e:	17 c0       	rjmp	.+46     	; 0x134e <one_int_to_font+0x76>
		case 3 : return font_3;
    1320:	2e e3       	ldi	r18, 0x3E	; 62
    1322:	32 e0       	ldi	r19, 0x02	; 2
    1324:	14 c0       	rjmp	.+40     	; 0x134e <one_int_to_font+0x76>
		case 4 : return font_4;
    1326:	26 e4       	ldi	r18, 0x46	; 70
    1328:	32 e0       	ldi	r19, 0x02	; 2
    132a:	11 c0       	rjmp	.+34     	; 0x134e <one_int_to_font+0x76>
		case 5 : return font_5;
    132c:	2e e4       	ldi	r18, 0x4E	; 78
    132e:	32 e0       	ldi	r19, 0x02	; 2
    1330:	0e c0       	rjmp	.+28     	; 0x134e <one_int_to_font+0x76>
		case 6 : return font_6;
    1332:	26 e5       	ldi	r18, 0x56	; 86
    1334:	32 e0       	ldi	r19, 0x02	; 2
    1336:	0b c0       	rjmp	.+22     	; 0x134e <one_int_to_font+0x76>
		case 7 : return font_7;
    1338:	2e e5       	ldi	r18, 0x5E	; 94
    133a:	32 e0       	ldi	r19, 0x02	; 2
    133c:	08 c0       	rjmp	.+16     	; 0x134e <one_int_to_font+0x76>
		case 8 : return font_8;
    133e:	26 e6       	ldi	r18, 0x66	; 102
    1340:	32 e0       	ldi	r19, 0x02	; 2
    1342:	05 c0       	rjmp	.+10     	; 0x134e <one_int_to_font+0x76>
		case 9 : return font_9;
    1344:	2e e6       	ldi	r18, 0x6E	; 110
    1346:	32 e0       	ldi	r19, 0x02	; 2
    1348:	02 c0       	rjmp	.+4      	; 0x134e <one_int_to_font+0x76>
		default: return font_NULL;
    134a:	26 ef       	ldi	r18, 0xF6	; 246
    134c:	31 e0       	ldi	r19, 0x01	; 1
	}
}
    134e:	c9 01       	movw	r24, r18
    1350:	08 95       	ret

00001352 <two_int_to_font>:
}


char* one_int_to_font(ShortInt one_ShortInt);
void two_int_to_font(ShortInt two_ShortInt, char **p_h_font, char **p_l_font)
{
    1352:	cf 92       	push	r12
    1354:	df 92       	push	r13
    1356:	ef 92       	push	r14
    1358:	ff 92       	push	r15
    135a:	1f 93       	push	r17
    135c:	18 2f       	mov	r17, r24
    135e:	7b 01       	movw	r14, r22
    1360:	6a 01       	movw	r12, r20
	ShortInt h_ShortInt = two_ShortInt/10;
	ShortInt l_ShortInt = two_ShortInt%10;
	*p_h_font = one_int_to_font(h_ShortInt);
    1362:	6a e0       	ldi	r22, 0x0A	; 10
    1364:	0e 94 c8 0c 	call	0x1990	; 0x1990 <__udivmodqi4>
    1368:	0e 94 6c 09 	call	0x12d8	; 0x12d8 <one_int_to_font>
    136c:	f7 01       	movw	r30, r14
    136e:	91 83       	std	Z+1, r25	; 0x01
    1370:	80 83       	st	Z, r24
	*p_l_font = one_int_to_font(l_ShortInt);
    1372:	81 2f       	mov	r24, r17
    1374:	6a e0       	ldi	r22, 0x0A	; 10
    1376:	0e 94 c8 0c 	call	0x1990	; 0x1990 <__udivmodqi4>
    137a:	89 2f       	mov	r24, r25
    137c:	0e 94 6c 09 	call	0x12d8	; 0x12d8 <one_int_to_font>
    1380:	f6 01       	movw	r30, r12
    1382:	91 83       	std	Z+1, r25	; 0x01
    1384:	80 83       	st	Z, r24
}
    1386:	1f 91       	pop	r17
    1388:	ff 90       	pop	r15
    138a:	ef 90       	pop	r14
    138c:	df 90       	pop	r13
    138e:	cf 90       	pop	r12
    1390:	08 95       	ret

00001392 <ShowNumber>:
	} // End of While
}

void two_int_to_font(ShortInt two_ShortInt, char **p_h_font, char **p_l_font);
void ShowNumber(ShortInt number, ShortInt row, ShortInt col)
{
    1392:	0f 93       	push	r16
    1394:	1f 93       	push	r17
    1396:	df 93       	push	r29
    1398:	cf 93       	push	r28
    139a:	00 d0       	rcall	.+0      	; 0x139c <ShowNumber+0xa>
    139c:	00 d0       	rcall	.+0      	; 0x139e <ShowNumber+0xc>
    139e:	cd b7       	in	r28, 0x3d	; 61
    13a0:	de b7       	in	r29, 0x3e	; 62
    13a2:	06 2f       	mov	r16, r22
    13a4:	14 2f       	mov	r17, r20
	char *h_font, *l_font;
	two_int_to_font(number, &h_font, &l_font);
    13a6:	be 01       	movw	r22, r28
    13a8:	6f 5f       	subi	r22, 0xFF	; 255
    13aa:	7f 4f       	sbci	r23, 0xFF	; 255
    13ac:	ae 01       	movw	r20, r28
    13ae:	4d 5f       	subi	r20, 0xFD	; 253
    13b0:	5f 4f       	sbci	r21, 0xFF	; 255
    13b2:	0e 94 a9 09 	call	0x1352	; 0x1352 <two_int_to_font>
	GraphLcdCharactorSet(row,col,h_font);
    13b6:	49 81       	ldd	r20, Y+1	; 0x01
    13b8:	5a 81       	ldd	r21, Y+2	; 0x02
    13ba:	80 2f       	mov	r24, r16
    13bc:	61 2f       	mov	r22, r17
    13be:	0e 94 04 07 	call	0xe08	; 0xe08 <GraphLcdCharactorSet>
	GraphLcdCharactorSet(row,col+1,l_font);
    13c2:	1f 5f       	subi	r17, 0xFF	; 255
    13c4:	4b 81       	ldd	r20, Y+3	; 0x03
    13c6:	5c 81       	ldd	r21, Y+4	; 0x04
    13c8:	80 2f       	mov	r24, r16
    13ca:	61 2f       	mov	r22, r17
    13cc:	0e 94 04 07 	call	0xe08	; 0xe08 <GraphLcdCharactorSet>
}
    13d0:	0f 90       	pop	r0
    13d2:	0f 90       	pop	r0
    13d4:	0f 90       	pop	r0
    13d6:	0f 90       	pop	r0
    13d8:	cf 91       	pop	r28
    13da:	df 91       	pop	r29
    13dc:	1f 91       	pop	r17
    13de:	0f 91       	pop	r16
    13e0:	08 95       	ret

000013e2 <ShowAMPM>:
	GraphLcdCharactorSet(row,COL_SECOND+2,font_Cho);
}


void ShowAMPM(int row)
{
    13e2:	1f 93       	push	r17
    13e4:	cf 93       	push	r28
    13e6:	df 93       	push	r29
    13e8:	18 2f       	mov	r17, r24
	char *font_Jyun_or_Hoo;
	if (CurrentTime.ampm == AM)	
    13ea:	80 91 c8 02 	lds	r24, 0x02C8
    13ee:	90 91 c9 02 	lds	r25, 0x02C9
    13f2:	89 2b       	or	r24, r25
    13f4:	19 f4       	brne	.+6      	; 0x13fc <ShowAMPM+0x1a>
		font_Jyun_or_Hoo = font_Jyun;
    13f6:	c6 e4       	ldi	r28, 0x46	; 70
    13f8:	d1 e0       	ldi	r29, 0x01	; 1
    13fa:	02 c0       	rjmp	.+4      	; 0x1400 <ShowAMPM+0x1e>
	else
		font_Jyun_or_Hoo = font_Hoo;	
    13fc:	ce e4       	ldi	r28, 0x4E	; 78
    13fe:	d1 e0       	ldi	r29, 0x01	; 1
	GraphLcdCharactorSet(row,COL_AMPM,font_OO);
    1400:	81 2f       	mov	r24, r17
    1402:	62 e0       	ldi	r22, 0x02	; 2
    1404:	4e e3       	ldi	r20, 0x3E	; 62
    1406:	51 e0       	ldi	r21, 0x01	; 1
    1408:	0e 94 04 07 	call	0xe08	; 0xe08 <GraphLcdCharactorSet>
	GraphLcdCharactorSet(row,COL_AMPM+1,font_Jyun_or_Hoo);
    140c:	81 2f       	mov	r24, r17
    140e:	63 e0       	ldi	r22, 0x03	; 3
    1410:	ae 01       	movw	r20, r28
    1412:	0e 94 04 07 	call	0xe08	; 0xe08 <GraphLcdCharactorSet>
}
    1416:	df 91       	pop	r29
    1418:	cf 91       	pop	r28
    141a:	1f 91       	pop	r17
    141c:	08 95       	ret

0000141e <ShowCho>:
void ShowBoon(int row){
	GraphLcdCharactorSet(row,COL_MINUTE+2,font_Boon);
}

void ShowCho(int row){
	GraphLcdCharactorSet(row,COL_SECOND+2,font_Cho);
    141e:	6d e0       	ldi	r22, 0x0D	; 13
    1420:	46 e3       	ldi	r20, 0x36	; 54
    1422:	51 e0       	ldi	r21, 0x01	; 1
    1424:	0e 94 04 07 	call	0xe08	; 0xe08 <GraphLcdCharactorSet>
}
    1428:	08 95       	ret

0000142a <ShowBoon>:
void ShowSi(int row){
	GraphLcdCharactorSet(row,COL_HOUR+2,font_Si);
}

void ShowBoon(int row){
	GraphLcdCharactorSet(row,COL_MINUTE+2,font_Boon);
    142a:	6a e0       	ldi	r22, 0x0A	; 10
    142c:	4e e2       	ldi	r20, 0x2E	; 46
    142e:	51 e0       	ldi	r21, 0x01	; 1
    1430:	0e 94 04 07 	call	0xe08	; 0xe08 <GraphLcdCharactorSet>
}
    1434:	08 95       	ret

00001436 <ShowSi>:
	GraphLcdCharactorSet(TITLE_ROW,TITLE_COL+9,font_hyphen);
}


void ShowSi(int row){
	GraphLcdCharactorSet(row,COL_HOUR+2,font_Si);
    1436:	67 e0       	ldi	r22, 0x07	; 7
    1438:	4e e1       	ldi	r20, 0x1E	; 30
    143a:	51 e0       	ldi	r21, 0x01	; 1
    143c:	0e 94 04 07 	call	0xe08	; 0xe08 <GraphLcdCharactorSet>
}
    1440:	08 95       	ret

00001442 <ShowTitle>:
#include "..\Time.h"
#include "RowAndColDefine.h"

void GraphLcdCharactorSet( unsigned char line, unsigned char Poz, const char *Charactor);
void ShowTitle()
{
    1442:	0f 93       	push	r16
    1444:	1f 93       	push	r17

	GraphLcdCharactorSet(TITLE_ROW,TITLE_COL,font_hyphen);
    1446:	0e e1       	ldi	r16, 0x1E	; 30
    1448:	12 e0       	ldi	r17, 0x02	; 2
    144a:	80 e0       	ldi	r24, 0x00	; 0
    144c:	62 e0       	ldi	r22, 0x02	; 2
    144e:	a8 01       	movw	r20, r16
    1450:	0e 94 04 07 	call	0xe08	; 0xe08 <GraphLcdCharactorSet>
	GraphLcdCharactorSet(TITLE_ROW,TITLE_COL+1,font_hyphen);
    1454:	80 e0       	ldi	r24, 0x00	; 0
    1456:	63 e0       	ldi	r22, 0x03	; 3
    1458:	a8 01       	movw	r20, r16
    145a:	0e 94 04 07 	call	0xe08	; 0xe08 <GraphLcdCharactorSet>
	GraphLcdCharactorSet(TITLE_ROW,TITLE_COL+2,font_hyphen);
    145e:	80 e0       	ldi	r24, 0x00	; 0
    1460:	64 e0       	ldi	r22, 0x04	; 4
    1462:	a8 01       	movw	r20, r16
    1464:	0e 94 04 07 	call	0xe08	; 0xe08 <GraphLcdCharactorSet>

	GraphLcdCharactorSet(TITLE_ROW,TITLE_COL+3,font_Hyun);
    1468:	80 e0       	ldi	r24, 0x00	; 0
    146a:	65 e0       	ldi	r22, 0x05	; 5
    146c:	4e e0       	ldi	r20, 0x0E	; 14
    146e:	51 e0       	ldi	r21, 0x01	; 1
    1470:	0e 94 04 07 	call	0xe08	; 0xe08 <GraphLcdCharactorSet>
	GraphLcdCharactorSet(TITLE_ROW,TITLE_COL+4,font_Jae);
    1474:	80 e0       	ldi	r24, 0x00	; 0
    1476:	66 e0       	ldi	r22, 0x06	; 6
    1478:	46 e1       	ldi	r20, 0x16	; 22
    147a:	51 e0       	ldi	r21, 0x01	; 1
    147c:	0e 94 04 07 	call	0xe08	; 0xe08 <GraphLcdCharactorSet>
	GraphLcdCharactorSet(TITLE_ROW,TITLE_COL+5,font_Si);
    1480:	80 e0       	ldi	r24, 0x00	; 0
    1482:	67 e0       	ldi	r22, 0x07	; 7
    1484:	4e e1       	ldi	r20, 0x1E	; 30
    1486:	51 e0       	ldi	r21, 0x01	; 1
    1488:	0e 94 04 07 	call	0xe08	; 0xe08 <GraphLcdCharactorSet>
	GraphLcdCharactorSet(TITLE_ROW,TITLE_COL+6,font_Gak);
    148c:	80 e0       	ldi	r24, 0x00	; 0
    148e:	68 e0       	ldi	r22, 0x08	; 8
    1490:	46 e2       	ldi	r20, 0x26	; 38
    1492:	51 e0       	ldi	r21, 0x01	; 1
    1494:	0e 94 04 07 	call	0xe08	; 0xe08 <GraphLcdCharactorSet>
	
	GraphLcdCharactorSet(TITLE_ROW,TITLE_COL+7,font_hyphen);
    1498:	80 e0       	ldi	r24, 0x00	; 0
    149a:	69 e0       	ldi	r22, 0x09	; 9
    149c:	a8 01       	movw	r20, r16
    149e:	0e 94 04 07 	call	0xe08	; 0xe08 <GraphLcdCharactorSet>
	GraphLcdCharactorSet(TITLE_ROW,TITLE_COL+8,font_hyphen);
    14a2:	80 e0       	ldi	r24, 0x00	; 0
    14a4:	6a e0       	ldi	r22, 0x0A	; 10
    14a6:	a8 01       	movw	r20, r16
    14a8:	0e 94 04 07 	call	0xe08	; 0xe08 <GraphLcdCharactorSet>
	GraphLcdCharactorSet(TITLE_ROW,TITLE_COL+9,font_hyphen);
    14ac:	80 e0       	ldi	r24, 0x00	; 0
    14ae:	6b e0       	ldi	r22, 0x0B	; 11
    14b0:	a8 01       	movw	r20, r16
    14b2:	0e 94 04 07 	call	0xe08	; 0xe08 <GraphLcdCharactorSet>
}
    14b6:	1f 91       	pop	r17
    14b8:	0f 91       	pop	r16
    14ba:	08 95       	ret

000014bc <ShowText>:
#endif
#include <string.h>
void GraphLcdCharactorSet( ShortInt line, ShortInt Poz, const char *Charactor);

void ShowText( const ShortInt SetLine, const ShortInt col, unsigned char* String)
{
    14bc:	df 92       	push	r13
    14be:	ef 92       	push	r14
    14c0:	ff 92       	push	r15
    14c2:	0f 93       	push	r16
    14c4:	1f 93       	push	r17
    14c6:	cf 93       	push	r28
    14c8:	df 93       	push	r29
    14ca:	08 2f       	mov	r16, r24
    14cc:	16 2f       	mov	r17, r22
    14ce:	7a 01       	movw	r14, r20
	ShortInt i, colOffset = 0;
	ShortInt length = strlen(String);
    14d0:	fa 01       	movw	r30, r20
    14d2:	01 90       	ld	r0, Z+
    14d4:	00 20       	and	r0, r0
    14d6:	e9 f7       	brne	.-6      	; 0x14d2 <ShowText+0x16>
    14d8:	31 97       	sbiw	r30, 0x01	; 1
    14da:	de 2e       	mov	r13, r30
    14dc:	d4 1a       	sub	r13, r20
    14de:	c0 e0       	ldi	r28, 0x00	; 0
    14e0:	d0 e0       	ldi	r29, 0x00	; 0
    14e2:	bb c0       	rjmp	.+374    	; 0x165a <ShowText+0x19e>
	for(i=0;i<length;i++) {
		switch(String[colOffset]) {
    14e4:	f7 01       	movw	r30, r14
    14e6:	ec 0f       	add	r30, r28
    14e8:	fd 1f       	adc	r31, r29
    14ea:	80 81       	ld	r24, Z
    14ec:	90 e0       	ldi	r25, 0x00	; 0
    14ee:	fc 01       	movw	r30, r24
    14f0:	b0 97       	sbiw	r30, 0x20	; 32
    14f2:	e6 35       	cpi	r30, 0x56	; 86
    14f4:	f1 05       	cpc	r31, r1
    14f6:	08 f0       	brcs	.+2      	; 0x14fa <ShowText+0x3e>
    14f8:	a8 c0       	rjmp	.+336    	; 0x164a <ShowText+0x18e>
    14fa:	ea 5b       	subi	r30, 0xBA	; 186
    14fc:	ff 4f       	sbci	r31, 0xFF	; 255
    14fe:	ee 0f       	add	r30, r30
    1500:	ff 1f       	adc	r31, r31
    1502:	05 90       	lpm	r0, Z+
    1504:	f4 91       	lpm	r31, Z+
    1506:	e0 2d       	mov	r30, r0
    1508:	09 94       	ijmp
			case '0' : GraphLcdCharactorSet(SetLine,col+colOffset,font_0); break; 
    150a:	80 2f       	mov	r24, r16
    150c:	61 2f       	mov	r22, r17
    150e:	46 e2       	ldi	r20, 0x26	; 38
    1510:	52 e0       	ldi	r21, 0x02	; 2
    1512:	9f c0       	rjmp	.+318    	; 0x1652 <ShowText+0x196>
			case '1' : GraphLcdCharactorSet(SetLine,col+colOffset,font_1); break; 
    1514:	80 2f       	mov	r24, r16
    1516:	61 2f       	mov	r22, r17
    1518:	4e e2       	ldi	r20, 0x2E	; 46
    151a:	52 e0       	ldi	r21, 0x02	; 2
    151c:	9a c0       	rjmp	.+308    	; 0x1652 <ShowText+0x196>
			case '2' : GraphLcdCharactorSet(SetLine,col+colOffset,font_2); break; 
    151e:	80 2f       	mov	r24, r16
    1520:	61 2f       	mov	r22, r17
    1522:	46 e3       	ldi	r20, 0x36	; 54
    1524:	52 e0       	ldi	r21, 0x02	; 2
    1526:	95 c0       	rjmp	.+298    	; 0x1652 <ShowText+0x196>
			case '3' : GraphLcdCharactorSet(SetLine,col+colOffset,font_3); break; 
    1528:	80 2f       	mov	r24, r16
    152a:	61 2f       	mov	r22, r17
    152c:	4e e3       	ldi	r20, 0x3E	; 62
    152e:	52 e0       	ldi	r21, 0x02	; 2
    1530:	90 c0       	rjmp	.+288    	; 0x1652 <ShowText+0x196>
			case '4' : GraphLcdCharactorSet(SetLine,col+colOffset,font_4); break; 
    1532:	80 2f       	mov	r24, r16
    1534:	61 2f       	mov	r22, r17
    1536:	46 e4       	ldi	r20, 0x46	; 70
    1538:	52 e0       	ldi	r21, 0x02	; 2
    153a:	8b c0       	rjmp	.+278    	; 0x1652 <ShowText+0x196>
			case '5' : GraphLcdCharactorSet(SetLine,col+colOffset,font_5); break; 
    153c:	80 2f       	mov	r24, r16
    153e:	61 2f       	mov	r22, r17
    1540:	4e e4       	ldi	r20, 0x4E	; 78
    1542:	52 e0       	ldi	r21, 0x02	; 2
    1544:	86 c0       	rjmp	.+268    	; 0x1652 <ShowText+0x196>
			case '6' : GraphLcdCharactorSet(SetLine,col+colOffset,font_6); break; 
    1546:	80 2f       	mov	r24, r16
    1548:	61 2f       	mov	r22, r17
    154a:	46 e5       	ldi	r20, 0x56	; 86
    154c:	52 e0       	ldi	r21, 0x02	; 2
    154e:	81 c0       	rjmp	.+258    	; 0x1652 <ShowText+0x196>
			case '7' : GraphLcdCharactorSet(SetLine,col+colOffset,font_7); break; 
    1550:	80 2f       	mov	r24, r16
    1552:	61 2f       	mov	r22, r17
    1554:	4e e5       	ldi	r20, 0x5E	; 94
    1556:	52 e0       	ldi	r21, 0x02	; 2
    1558:	7c c0       	rjmp	.+248    	; 0x1652 <ShowText+0x196>
			case '8' : GraphLcdCharactorSet(SetLine,col+colOffset,font_8); break; 
    155a:	80 2f       	mov	r24, r16
    155c:	61 2f       	mov	r22, r17
    155e:	46 e6       	ldi	r20, 0x66	; 102
    1560:	52 e0       	ldi	r21, 0x02	; 2
    1562:	77 c0       	rjmp	.+238    	; 0x1652 <ShowText+0x196>
			case '9' : GraphLcdCharactorSet(SetLine,col+colOffset,font_9); break; 
    1564:	80 2f       	mov	r24, r16
    1566:	61 2f       	mov	r22, r17
    1568:	4e e6       	ldi	r20, 0x6E	; 110
    156a:	52 e0       	ldi	r21, 0x02	; 2
    156c:	72 c0       	rjmp	.+228    	; 0x1652 <ShowText+0x196>
			case 'A' : GraphLcdCharactorSet(SetLine,col+colOffset,font_A); break; 
    156e:	80 2f       	mov	r24, r16
    1570:	61 2f       	mov	r22, r17
    1572:	46 e7       	ldi	r20, 0x76	; 118
    1574:	51 e0       	ldi	r21, 0x01	; 1
    1576:	6d c0       	rjmp	.+218    	; 0x1652 <ShowText+0x196>
			case 'B' : GraphLcdCharactorSet(SetLine,col+colOffset,font_B); break; 
    1578:	80 2f       	mov	r24, r16
    157a:	61 2f       	mov	r22, r17
    157c:	4e e7       	ldi	r20, 0x7E	; 126
    157e:	51 e0       	ldi	r21, 0x01	; 1
    1580:	68 c0       	rjmp	.+208    	; 0x1652 <ShowText+0x196>
			case 'C' : GraphLcdCharactorSet(SetLine,col+colOffset,font_C); break; 
    1582:	80 2f       	mov	r24, r16
    1584:	61 2f       	mov	r22, r17
    1586:	46 e8       	ldi	r20, 0x86	; 134
    1588:	51 e0       	ldi	r21, 0x01	; 1
    158a:	63 c0       	rjmp	.+198    	; 0x1652 <ShowText+0x196>
			case 'D' : GraphLcdCharactorSet(SetLine,col+colOffset,font_D); break; 
    158c:	80 2f       	mov	r24, r16
    158e:	61 2f       	mov	r22, r17
    1590:	4e e8       	ldi	r20, 0x8E	; 142
    1592:	51 e0       	ldi	r21, 0x01	; 1
    1594:	5e c0       	rjmp	.+188    	; 0x1652 <ShowText+0x196>
			case 'E' : GraphLcdCharactorSet(SetLine,col+colOffset,font_E); break; 
    1596:	80 2f       	mov	r24, r16
    1598:	61 2f       	mov	r22, r17
    159a:	46 e9       	ldi	r20, 0x96	; 150
    159c:	51 e0       	ldi	r21, 0x01	; 1
    159e:	59 c0       	rjmp	.+178    	; 0x1652 <ShowText+0x196>
			case 'F' : GraphLcdCharactorSet(SetLine,col+colOffset,font_F); break;
    15a0:	80 2f       	mov	r24, r16
    15a2:	61 2f       	mov	r22, r17
    15a4:	4e e9       	ldi	r20, 0x9E	; 158
    15a6:	51 e0       	ldi	r21, 0x01	; 1
    15a8:	54 c0       	rjmp	.+168    	; 0x1652 <ShowText+0x196>
			case 'G' : GraphLcdCharactorSet(SetLine,col+colOffset,font_G); break;
    15aa:	80 2f       	mov	r24, r16
    15ac:	61 2f       	mov	r22, r17
    15ae:	46 ea       	ldi	r20, 0xA6	; 166
    15b0:	51 e0       	ldi	r21, 0x01	; 1
    15b2:	4f c0       	rjmp	.+158    	; 0x1652 <ShowText+0x196>
			case 'H' : GraphLcdCharactorSet(SetLine,col+colOffset,font_H); break; 
    15b4:	80 2f       	mov	r24, r16
    15b6:	61 2f       	mov	r22, r17
    15b8:	4e ea       	ldi	r20, 0xAE	; 174
    15ba:	51 e0       	ldi	r21, 0x01	; 1
    15bc:	4a c0       	rjmp	.+148    	; 0x1652 <ShowText+0x196>
			case 'I' : GraphLcdCharactorSet(SetLine,col+colOffset,font_I); break; 
    15be:	80 2f       	mov	r24, r16
    15c0:	61 2f       	mov	r22, r17
    15c2:	46 eb       	ldi	r20, 0xB6	; 182
    15c4:	51 e0       	ldi	r21, 0x01	; 1
    15c6:	45 c0       	rjmp	.+138    	; 0x1652 <ShowText+0x196>
			case 'K' : GraphLcdCharactorSet(SetLine,col+colOffset,font_K); break; 
    15c8:	80 2f       	mov	r24, r16
    15ca:	61 2f       	mov	r22, r17
    15cc:	4e eb       	ldi	r20, 0xBE	; 190
    15ce:	51 e0       	ldi	r21, 0x01	; 1
    15d0:	40 c0       	rjmp	.+128    	; 0x1652 <ShowText+0x196>
			// L 궡媛 留뚮벉
			case 'L' : GraphLcdCharactorSet(SetLine,col+colOffset,font_L); break;
    15d2:	80 2f       	mov	r24, r16
    15d4:	61 2f       	mov	r22, r17
    15d6:	4e e6       	ldi	r20, 0x6E	; 110
    15d8:	51 e0       	ldi	r21, 0x01	; 1
    15da:	3b c0       	rjmp	.+118    	; 0x1652 <ShowText+0x196>
			case 'O' : GraphLcdCharactorSet(SetLine,col+colOffset,font_O); break; 
    15dc:	80 2f       	mov	r24, r16
    15de:	61 2f       	mov	r22, r17
    15e0:	46 ec       	ldi	r20, 0xC6	; 198
    15e2:	51 e0       	ldi	r21, 0x01	; 1
    15e4:	36 c0       	rjmp	.+108    	; 0x1652 <ShowText+0x196>
			case 'P' : GraphLcdCharactorSet(SetLine,col+colOffset,font_P); break; 
    15e6:	80 2f       	mov	r24, r16
    15e8:	61 2f       	mov	r22, r17
    15ea:	4e ec       	ldi	r20, 0xCE	; 206
    15ec:	51 e0       	ldi	r21, 0x01	; 1
    15ee:	31 c0       	rjmp	.+98     	; 0x1652 <ShowText+0x196>
			case 'R' : GraphLcdCharactorSet(SetLine,col+colOffset,font_R); break; 
    15f0:	80 2f       	mov	r24, r16
    15f2:	61 2f       	mov	r22, r17
    15f4:	46 ed       	ldi	r20, 0xD6	; 214
    15f6:	51 e0       	ldi	r21, 0x01	; 1
    15f8:	2c c0       	rjmp	.+88     	; 0x1652 <ShowText+0x196>
			case 'S' : GraphLcdCharactorSet(SetLine,col+colOffset,font_S); break; 
    15fa:	80 2f       	mov	r24, r16
    15fc:	61 2f       	mov	r22, r17
    15fe:	4e ed       	ldi	r20, 0xDE	; 222
    1600:	51 e0       	ldi	r21, 0x01	; 1
    1602:	27 c0       	rjmp	.+78     	; 0x1652 <ShowText+0x196>
			case 'T' : GraphLcdCharactorSet(SetLine,col+colOffset,font_T); break; 
    1604:	80 2f       	mov	r24, r16
    1606:	61 2f       	mov	r22, r17
    1608:	46 ee       	ldi	r20, 0xE6	; 230
    160a:	51 e0       	ldi	r21, 0x01	; 1
    160c:	22 c0       	rjmp	.+68     	; 0x1652 <ShowText+0x196>
			case 'Y' : GraphLcdCharactorSet(SetLine,col+colOffset,font_Y); break;
    160e:	80 2f       	mov	r24, r16
    1610:	61 2f       	mov	r22, r17
    1612:	4e ee       	ldi	r20, 0xEE	; 238
    1614:	51 e0       	ldi	r21, 0x01	; 1
    1616:	1d c0       	rjmp	.+58     	; 0x1652 <ShowText+0x196>
			case '-' : GraphLcdCharactorSet(SetLine,col+colOffset,font_hyphen); break; 
    1618:	80 2f       	mov	r24, r16
    161a:	61 2f       	mov	r22, r17
    161c:	4e e1       	ldi	r20, 0x1E	; 30
    161e:	52 e0       	ldi	r21, 0x02	; 2
    1620:	18 c0       	rjmp	.+48     	; 0x1652 <ShowText+0x196>
			case ' ' : GraphLcdCharactorSet(SetLine,col+colOffset,font_NULL); break; 
			case 'u' : GraphLcdCharactorSet(SetLine,col+colOffset,font_u); break;
    1622:	80 2f       	mov	r24, r16
    1624:	61 2f       	mov	r22, r17
    1626:	4e ef       	ldi	r20, 0xFE	; 254
    1628:	51 e0       	ldi	r21, 0x01	; 1
    162a:	13 c0       	rjmp	.+38     	; 0x1652 <ShowText+0x196>
			case 'i' : GraphLcdCharactorSet(SetLine,col+colOffset,font_i); break;
    162c:	80 2f       	mov	r24, r16
    162e:	61 2f       	mov	r22, r17
    1630:	46 e0       	ldi	r20, 0x06	; 6
    1632:	52 e0       	ldi	r21, 0x02	; 2
    1634:	0e c0       	rjmp	.+28     	; 0x1652 <ShowText+0x196>
			case 'n' : GraphLcdCharactorSet(SetLine,col+colOffset,font_n); break;
    1636:	80 2f       	mov	r24, r16
    1638:	61 2f       	mov	r22, r17
    163a:	4e e0       	ldi	r20, 0x0E	; 14
    163c:	52 e0       	ldi	r21, 0x02	; 2
    163e:	09 c0       	rjmp	.+18     	; 0x1652 <ShowText+0x196>
			case 's' : GraphLcdCharactorSet(SetLine,col+colOffset,font_s); break;
    1640:	80 2f       	mov	r24, r16
    1642:	61 2f       	mov	r22, r17
    1644:	46 e1       	ldi	r20, 0x16	; 22
    1646:	52 e0       	ldi	r21, 0x02	; 2
    1648:	04 c0       	rjmp	.+8      	; 0x1652 <ShowText+0x196>

			default :  GraphLcdCharactorSet(SetLine,col+colOffset,font_NULL);			 
    164a:	80 2f       	mov	r24, r16
    164c:	61 2f       	mov	r22, r17
    164e:	46 ef       	ldi	r20, 0xF6	; 246
    1650:	51 e0       	ldi	r21, 0x01	; 1
    1652:	0e 94 04 07 	call	0xe08	; 0xe08 <GraphLcdCharactorSet>
    1656:	21 96       	adiw	r28, 0x01	; 1
    1658:	1f 5f       	subi	r17, 0xFF	; 255

void ShowText( const ShortInt SetLine, const ShortInt col, unsigned char* String)
{
	ShortInt i, colOffset = 0;
	ShortInt length = strlen(String);
	for(i=0;i<length;i++) {
    165a:	cd 15       	cp	r28, r13
    165c:	08 f4       	brcc	.+2      	; 0x1660 <ShowText+0x1a4>
    165e:	42 cf       	rjmp	.-380    	; 0x14e4 <ShowText+0x28>

			default :  GraphLcdCharactorSet(SetLine,col+colOffset,font_NULL);			 
		} // End of Switch
		colOffset++;
	} // End of While
}
    1660:	df 91       	pop	r29
    1662:	cf 91       	pop	r28
    1664:	1f 91       	pop	r17
    1666:	0f 91       	pop	r16
    1668:	ff 90       	pop	r15
    166a:	ef 90       	pop	r14
    166c:	df 90       	pop	r13
    166e:	08 95       	ret

00001670 <GLcdDataAnd>:
	LCD_CONTROL = 0x00;				                             	// clear all control signals
	Delay_us(50);                                                   // wait GLCD busy
}

void GLcdDataAnd(unsigned int signal,unsigned int character)    	 // write a data 
{
    1670:	0f 93       	push	r16
    1672:	1f 93       	push	r17
	LCD_CONTROL = (signal & 0xC0)|0x10;		                   	  // D/-I = 1	
    1674:	80 7c       	andi	r24, 0xC0	; 192
    1676:	28 2f       	mov	r18, r24
    1678:	20 61       	ori	r18, 0x10	; 16
    167a:	00 e0       	ldi	r16, 0x00	; 0
    167c:	14 e6       	ldi	r17, 0x64	; 100
    167e:	f8 01       	movw	r30, r16
    1680:	20 83       	st	Z, r18
	LCD_DATA &= character;                                      	 // write data
    1682:	e0 e0       	ldi	r30, 0x00	; 0
    1684:	f8 e6       	ldi	r31, 0x68	; 104
    1686:	90 81       	ld	r25, Z
    1688:	96 23       	and	r25, r22
    168a:	90 83       	st	Z, r25
	LCD_CONTROL = (signal & 0xC0)|0x30;		                    	 // E = 1
    168c:	80 63       	ori	r24, 0x30	; 48
    168e:	f8 01       	movw	r30, r16
    1690:	80 83       	st	Z, r24
	LCD_CONTROL = (signal & 0xC0)|0x10;                            // E = 0
    1692:	20 83       	st	Z, r18
	Delay_us(10);
    1694:	8a e0       	ldi	r24, 0x0A	; 10
    1696:	90 e0       	ldi	r25, 0x00	; 0
    1698:	0e 94 59 06 	call	0xcb2	; 0xcb2 <Delay_us>
	LCD_CONTROL = 0x00;				                             	// clear all control signals
    169c:	f8 01       	movw	r30, r16
    169e:	10 82       	st	Z, r1
	Delay_us(50);                                                   // wait GLCD busy
    16a0:	82 e3       	ldi	r24, 0x32	; 50
    16a2:	90 e0       	ldi	r25, 0x00	; 0
    16a4:	0e 94 59 06 	call	0xcb2	; 0xcb2 <Delay_us>
}    
    16a8:	1f 91       	pop	r17
    16aa:	0f 91       	pop	r16
    16ac:	08 95       	ret

000016ae <GLcdDataOr>:


#include "LCD_Map.h"
// LCD뿉 븳臾몄옄瑜 異쒕젰빐二쇰뒗 븿닔 
void GLcdDataOr(unsigned int signal,unsigned int character)    	 // write a data 
{
    16ae:	0f 93       	push	r16
    16b0:	1f 93       	push	r17
	LCD_CONTROL = (signal & 0xC0)|0x10;		                   	  // D/-I = 1	
    16b2:	80 7c       	andi	r24, 0xC0	; 192
    16b4:	28 2f       	mov	r18, r24
    16b6:	20 61       	ori	r18, 0x10	; 16
    16b8:	00 e0       	ldi	r16, 0x00	; 0
    16ba:	14 e6       	ldi	r17, 0x64	; 100
    16bc:	f8 01       	movw	r30, r16
    16be:	20 83       	st	Z, r18
	LCD_DATA |= character;                                      	 // write data
    16c0:	e0 e0       	ldi	r30, 0x00	; 0
    16c2:	f8 e6       	ldi	r31, 0x68	; 104
    16c4:	90 81       	ld	r25, Z
    16c6:	96 2b       	or	r25, r22
    16c8:	90 83       	st	Z, r25
	LCD_CONTROL = (signal & 0xC0)|0x30;		                    	 // E = 1
    16ca:	80 63       	ori	r24, 0x30	; 48
    16cc:	f8 01       	movw	r30, r16
    16ce:	80 83       	st	Z, r24
	LCD_CONTROL = (signal & 0xC0)|0x10;                            // E = 0
    16d0:	20 83       	st	Z, r18
	Delay_us(10);
    16d2:	8a e0       	ldi	r24, 0x0A	; 10
    16d4:	90 e0       	ldi	r25, 0x00	; 0
    16d6:	0e 94 59 06 	call	0xcb2	; 0xcb2 <Delay_us>
	LCD_CONTROL = 0x00;				                             	// clear all control signals
    16da:	f8 01       	movw	r30, r16
    16dc:	10 82       	st	Z, r1
	Delay_us(50);                                                   // wait GLCD busy
    16de:	82 e3       	ldi	r24, 0x32	; 50
    16e0:	90 e0       	ldi	r25, 0x00	; 0
    16e2:	0e 94 59 06 	call	0xcb2	; 0xcb2 <Delay_us>
}
    16e6:	1f 91       	pop	r17
    16e8:	0f 91       	pop	r16
    16ea:	08 95       	ret

000016ec <GraphLcdCharactorSet_OR_AND>:
void GLcdCmd(unsigned char signal,unsigned char command);
void GLcdDataOr(unsigned int signal,unsigned int character);
void GLcdDataAnd(unsigned int signal,unsigned int character);
void GraphLcdCharactorSet_OR_AND( unsigned char line
, unsigned char Poz, const char *Charactor, Char *originFont)
{
    16ec:	9f 92       	push	r9
    16ee:	af 92       	push	r10
    16f0:	bf 92       	push	r11
    16f2:	cf 92       	push	r12
    16f4:	df 92       	push	r13
    16f6:	ef 92       	push	r14
    16f8:	ff 92       	push	r15
    16fa:	0f 93       	push	r16
    16fc:	1f 93       	push	r17
    16fe:	cf 93       	push	r28
    1700:	df 93       	push	r29
    1702:	78 2f       	mov	r23, r24
    1704:	5a 01       	movw	r10, r20
	unsigned char i=0;
	unsigned char gSet;
	unsigned char gPoz;

	switch(Poz) {
    1706:	67 30       	cpi	r22, 0x07	; 7
    1708:	81 f1       	breq	.+96     	; 0x176a <GraphLcdCharactorSet_OR_AND+0x7e>
    170a:	68 30       	cpi	r22, 0x08	; 8
    170c:	70 f4       	brcc	.+28     	; 0x172a <GraphLcdCharactorSet_OR_AND+0x3e>
    170e:	63 30       	cpi	r22, 0x03	; 3
    1710:	21 f1       	breq	.+72     	; 0x175a <GraphLcdCharactorSet_OR_AND+0x6e>
    1712:	64 30       	cpi	r22, 0x04	; 4
    1714:	28 f4       	brcc	.+10     	; 0x1720 <GraphLcdCharactorSet_OR_AND+0x34>
    1716:	61 30       	cpi	r22, 0x01	; 1
    1718:	e1 f0       	breq	.+56     	; 0x1752 <GraphLcdCharactorSet_OR_AND+0x66>
    171a:	62 30       	cpi	r22, 0x02	; 2
    171c:	e0 f4       	brcc	.+56     	; 0x1756 <GraphLcdCharactorSet_OR_AND+0x6a>
    171e:	17 c0       	rjmp	.+46     	; 0x174e <GraphLcdCharactorSet_OR_AND+0x62>
    1720:	65 30       	cpi	r22, 0x05	; 5
    1722:	f9 f0       	breq	.+62     	; 0x1762 <GraphLcdCharactorSet_OR_AND+0x76>
    1724:	66 30       	cpi	r22, 0x06	; 6
    1726:	f8 f4       	brcc	.+62     	; 0x1766 <GraphLcdCharactorSet_OR_AND+0x7a>
    1728:	1a c0       	rjmp	.+52     	; 0x175e <GraphLcdCharactorSet_OR_AND+0x72>
    172a:	6b 30       	cpi	r22, 0x0B	; 11
    172c:	49 f1       	breq	.+82     	; 0x1780 <GraphLcdCharactorSet_OR_AND+0x94>
    172e:	6c 30       	cpi	r22, 0x0C	; 12
    1730:	28 f4       	brcc	.+10     	; 0x173c <GraphLcdCharactorSet_OR_AND+0x50>
    1732:	69 30       	cpi	r22, 0x09	; 9
    1734:	f9 f0       	breq	.+62     	; 0x1774 <GraphLcdCharactorSet_OR_AND+0x88>
    1736:	6a 30       	cpi	r22, 0x0A	; 10
    1738:	00 f5       	brcc	.+64     	; 0x177a <GraphLcdCharactorSet_OR_AND+0x8e>
    173a:	19 c0       	rjmp	.+50     	; 0x176e <GraphLcdCharactorSet_OR_AND+0x82>
    173c:	6d 30       	cpi	r22, 0x0D	; 13
    173e:	31 f1       	breq	.+76     	; 0x178c <GraphLcdCharactorSet_OR_AND+0xa0>
    1740:	6d 30       	cpi	r22, 0x0D	; 13
    1742:	08 f1       	brcs	.+66     	; 0x1786 <GraphLcdCharactorSet_OR_AND+0x9a>
    1744:	6e 30       	cpi	r22, 0x0E	; 14
    1746:	29 f1       	breq	.+74     	; 0x1792 <GraphLcdCharactorSet_OR_AND+0xa6>
    1748:	6f 30       	cpi	r22, 0x0F	; 15
    174a:	41 f5       	brne	.+80     	; 0x179c <GraphLcdCharactorSet_OR_AND+0xb0>
    174c:	25 c0       	rjmp	.+74     	; 0x1798 <GraphLcdCharactorSet_OR_AND+0xac>
    174e:	00 e4       	ldi	r16, 0x40	; 64
    1750:	0f c0       	rjmp	.+30     	; 0x1770 <GraphLcdCharactorSet_OR_AND+0x84>
    1752:	00 e4       	ldi	r16, 0x40	; 64
    1754:	10 c0       	rjmp	.+32     	; 0x1776 <GraphLcdCharactorSet_OR_AND+0x8a>
		case 0 : gSet = 0x40; gPoz = 0x40; break;  case 1 : gSet = 0x40; gPoz = 0x48; break;
    1756:	00 e4       	ldi	r16, 0x40	; 64
    1758:	11 c0       	rjmp	.+34     	; 0x177c <GraphLcdCharactorSet_OR_AND+0x90>
		case 2 : gSet = 0x40; gPoz = 0x50; break;  case 3 : gSet = 0x40; gPoz = 0x58; break;
    175a:	00 e4       	ldi	r16, 0x40	; 64
    175c:	12 c0       	rjmp	.+36     	; 0x1782 <GraphLcdCharactorSet_OR_AND+0x96>
    175e:	00 e4       	ldi	r16, 0x40	; 64
    1760:	13 c0       	rjmp	.+38     	; 0x1788 <GraphLcdCharactorSet_OR_AND+0x9c>
		case 4 : gSet = 0x40; gPoz = 0x60; break;  case 5 : gSet = 0x40; gPoz = 0x68; break;
    1762:	00 e4       	ldi	r16, 0x40	; 64
    1764:	14 c0       	rjmp	.+40     	; 0x178e <GraphLcdCharactorSet_OR_AND+0xa2>
    1766:	00 e4       	ldi	r16, 0x40	; 64
    1768:	15 c0       	rjmp	.+42     	; 0x1794 <GraphLcdCharactorSet_OR_AND+0xa8>
		case 6 : gSet = 0x40; gPoz = 0x70; break;  case 7 : gSet = 0x40; gPoz = 0x78; break;
    176a:	00 e4       	ldi	r16, 0x40	; 64
    176c:	16 c0       	rjmp	.+44     	; 0x179a <GraphLcdCharactorSet_OR_AND+0xae>
    176e:	00 e8       	ldi	r16, 0x80	; 128
    1770:	10 e4       	ldi	r17, 0x40	; 64
    1772:	14 c0       	rjmp	.+40     	; 0x179c <GraphLcdCharactorSet_OR_AND+0xb0>
		case 8 : gSet = 0x80; gPoz = 0x40; break;  case 9 : gSet = 0x80; gPoz = 0x48; break;
    1774:	00 e8       	ldi	r16, 0x80	; 128
    1776:	18 e4       	ldi	r17, 0x48	; 72
    1778:	11 c0       	rjmp	.+34     	; 0x179c <GraphLcdCharactorSet_OR_AND+0xb0>
    177a:	00 e8       	ldi	r16, 0x80	; 128
    177c:	10 e5       	ldi	r17, 0x50	; 80
    177e:	0e c0       	rjmp	.+28     	; 0x179c <GraphLcdCharactorSet_OR_AND+0xb0>
		case 10 : gSet = 0x80; gPoz = 0x50; break; case 11 : gSet = 0x80; gPoz = 0x58; break;
    1780:	00 e8       	ldi	r16, 0x80	; 128
    1782:	18 e5       	ldi	r17, 0x58	; 88
    1784:	0b c0       	rjmp	.+22     	; 0x179c <GraphLcdCharactorSet_OR_AND+0xb0>
    1786:	00 e8       	ldi	r16, 0x80	; 128
    1788:	10 e6       	ldi	r17, 0x60	; 96
    178a:	08 c0       	rjmp	.+16     	; 0x179c <GraphLcdCharactorSet_OR_AND+0xb0>
		case 12 : gSet = 0x80; gPoz = 0x60; break; case 13 : gSet = 0x80; gPoz = 0x68; break;
    178c:	00 e8       	ldi	r16, 0x80	; 128
    178e:	18 e6       	ldi	r17, 0x68	; 104
    1790:	05 c0       	rjmp	.+10     	; 0x179c <GraphLcdCharactorSet_OR_AND+0xb0>
    1792:	00 e8       	ldi	r16, 0x80	; 128
    1794:	10 e7       	ldi	r17, 0x70	; 112
    1796:	02 c0       	rjmp	.+4      	; 0x179c <GraphLcdCharactorSet_OR_AND+0xb0>
		case 14 : gSet = 0x80; gPoz = 0x70; break; case 15 : gSet = 0x80; gPoz = 0x78; break;
    1798:	00 e8       	ldi	r16, 0x80	; 128
    179a:	18 e7       	ldi	r17, 0x78	; 120
    179c:	75 01       	movw	r14, r10
    179e:	e9 01       	movw	r28, r18
	}
	for(i=0;i<8;i++) {
		GLcdCmd(0xC0,0xB8 + line );
    17a0:	98 eb       	ldi	r25, 0xB8	; 184
    17a2:	99 2e       	mov	r9, r25
    17a4:	97 0e       	add	r9, r23
		case 8 : gSet = 0x80; gPoz = 0x40; break;  case 9 : gSet = 0x80; gPoz = 0x48; break;
		case 10 : gSet = 0x80; gPoz = 0x50; break; case 11 : gSet = 0x80; gPoz = 0x58; break;
		case 12 : gSet = 0x80; gPoz = 0x60; break; case 13 : gSet = 0x80; gPoz = 0x68; break;
		case 14 : gSet = 0x80; gPoz = 0x70; break; case 15 : gSet = 0x80; gPoz = 0x78; break;
	}
	for(i=0;i<8;i++) {
    17a6:	88 e0       	ldi	r24, 0x08	; 8
    17a8:	c8 2e       	mov	r12, r24
    17aa:	d1 2c       	mov	r13, r1
    17ac:	ca 0c       	add	r12, r10
    17ae:	db 1c       	adc	r13, r11
		GLcdCmd(0xC0,0xB8 + line );
    17b0:	80 ec       	ldi	r24, 0xC0	; 192
    17b2:	69 2d       	mov	r22, r9
    17b4:	0e 94 ea 06 	call	0xdd4	; 0xdd4 <GLcdCmd>
		//GLcdCmd(0x40,gPoz + i); // 슂꽍쓣 궡媛 븘옒 媛숈씠 닔젙븿
		GLcdCmd(0xC0,gPoz + i);
    17b8:	80 ec       	ldi	r24, 0xC0	; 192
    17ba:	61 2f       	mov	r22, r17
    17bc:	0e 94 ea 06 	call	0xdd4	; 0xdd4 <GLcdCmd>
		if (Charactor) { // 洹몃━湲 紐⑤뱶
    17c0:	a1 14       	cp	r10, r1
    17c2:	b1 04       	cpc	r11, r1
    17c4:	51 f0       	breq	.+20     	; 0x17da <GraphLcdCharactorSet_OR_AND+0xee>
			originFont[i] = Charactor[i];
    17c6:	f7 01       	movw	r30, r14
    17c8:	80 81       	ld	r24, Z
    17ca:	88 83       	st	Y, r24
			GLcdDataOr(gSet,Charactor[i]);
    17cc:	60 81       	ld	r22, Z
    17ce:	80 2f       	mov	r24, r16
    17d0:	90 e0       	ldi	r25, 0x00	; 0
    17d2:	70 e0       	ldi	r23, 0x00	; 0
    17d4:	0e 94 57 0b 	call	0x16ae	; 0x16ae <GLcdDataOr>
    17d8:	06 c0       	rjmp	.+12     	; 0x17e6 <GraphLcdCharactorSet_OR_AND+0xfa>
		} else { // 吏슦湲 紐⑤뱶
			GLcdDataAnd(gSet,originFont[i]);
    17da:	68 81       	ld	r22, Y
    17dc:	80 2f       	mov	r24, r16
    17de:	90 e0       	ldi	r25, 0x00	; 0
    17e0:	70 e0       	ldi	r23, 0x00	; 0
    17e2:	0e 94 38 0b 	call	0x1670	; 0x1670 <GLcdDataAnd>
    17e6:	1f 5f       	subi	r17, 0xFF	; 255
    17e8:	08 94       	sec
    17ea:	e1 1c       	adc	r14, r1
    17ec:	f1 1c       	adc	r15, r1
    17ee:	21 96       	adiw	r28, 0x01	; 1
		case 8 : gSet = 0x80; gPoz = 0x40; break;  case 9 : gSet = 0x80; gPoz = 0x48; break;
		case 10 : gSet = 0x80; gPoz = 0x50; break; case 11 : gSet = 0x80; gPoz = 0x58; break;
		case 12 : gSet = 0x80; gPoz = 0x60; break; case 13 : gSet = 0x80; gPoz = 0x68; break;
		case 14 : gSet = 0x80; gPoz = 0x70; break; case 15 : gSet = 0x80; gPoz = 0x78; break;
	}
	for(i=0;i<8;i++) {
    17f0:	ec 14       	cp	r14, r12
    17f2:	fd 04       	cpc	r15, r13
    17f4:	e9 f6       	brne	.-70     	; 0x17b0 <GraphLcdCharactorSet_OR_AND+0xc4>
			GLcdDataOr(gSet,Charactor[i]);
		} else { // 吏슦湲 紐⑤뱶
			GLcdDataAnd(gSet,originFont[i]);
		}
	}
}
    17f6:	df 91       	pop	r29
    17f8:	cf 91       	pop	r28
    17fa:	1f 91       	pop	r17
    17fc:	0f 91       	pop	r16
    17fe:	ff 90       	pop	r15
    1800:	ef 90       	pop	r14
    1802:	df 90       	pop	r13
    1804:	cf 90       	pop	r12
    1806:	bf 90       	pop	r11
    1808:	af 90       	pop	r10
    180a:	9f 90       	pop	r9
    180c:	08 95       	ret

0000180e <eraseBottomEdge>:
							, originTopFonts[offset]);
}


void eraseBottomEdge(ShortInt row, ShortInt col, ShortInt offset)
{
    180e:	24 2f       	mov	r18, r20
	GraphLcdCharactorSet_OR_AND(row,col+offset,NULL, 
    1810:	64 0f       	add	r22, r20
    1812:	30 e0       	ldi	r19, 0x00	; 0
    1814:	43 e0       	ldi	r20, 0x03	; 3
    1816:	22 0f       	add	r18, r18
    1818:	33 1f       	adc	r19, r19
    181a:	4a 95       	dec	r20
    181c:	e1 f7       	brne	.-8      	; 0x1816 <eraseBottomEdge+0x8>
    181e:	2c 52       	subi	r18, 0x2C	; 44
    1820:	3d 4f       	sbci	r19, 0xFD	; 253
    1822:	40 e0       	ldi	r20, 0x00	; 0
    1824:	50 e0       	ldi	r21, 0x00	; 0
    1826:	0e 94 76 0b 	call	0x16ec	; 0x16ec <GraphLcdCharactorSet_OR_AND>
							originBottomFonts[offset]);
}
    182a:	08 95       	ret

0000182c <eraseTopEdge>:
	GraphLcdCharactorSet_OR_AND(row,col,NULL, originRightFont);
}


void eraseTopEdge(ShortInt row, ShortInt col, ShortInt offset)
{
    182c:	24 2f       	mov	r18, r20
	GraphLcdCharactorSet_OR_AND(row,col+offset,NULL
    182e:	64 0f       	add	r22, r20
    1830:	30 e0       	ldi	r19, 0x00	; 0
    1832:	53 e0       	ldi	r21, 0x03	; 3
    1834:	22 0f       	add	r18, r18
    1836:	33 1f       	adc	r19, r19
    1838:	5a 95       	dec	r21
    183a:	e1 f7       	brne	.-8      	; 0x1834 <eraseTopEdge+0x8>
    183c:	2c 5a       	subi	r18, 0xAC	; 172
    183e:	3c 4f       	sbci	r19, 0xFC	; 252
    1840:	40 e0       	ldi	r20, 0x00	; 0
    1842:	50 e0       	ldi	r21, 0x00	; 0
    1844:	0e 94 76 0b 	call	0x16ec	; 0x16ec <GraphLcdCharactorSet_OR_AND>
							, originTopFonts[offset]);
}
    1848:	08 95       	ret

0000184a <eraseRightEdge>:
}


void eraseRightEdge(ShortInt row, ShortInt col)
{
	GraphLcdCharactorSet_OR_AND(row,col,NULL, originRightFont);
    184a:	40 e0       	ldi	r20, 0x00	; 0
    184c:	50 e0       	ldi	r21, 0x00	; 0
    184e:	2c ec       	ldi	r18, 0xCC	; 204
    1850:	32 e0       	ldi	r19, 0x02	; 2
    1852:	0e 94 76 0b 	call	0x16ec	; 0x16ec <GraphLcdCharactorSet_OR_AND>
}
    1856:	08 95       	ret

00001858 <eraseLeftEdge>:


#define		NULL	(char*)0
void eraseLeftEdge(ShortInt row, ShortInt col)
{
	GraphLcdCharactorSet_OR_AND(row,col,NULL, originLeftFont);
    1858:	40 e0       	ldi	r20, 0x00	; 0
    185a:	50 e0       	ldi	r21, 0x00	; 0
    185c:	24 ed       	ldi	r18, 0xD4	; 212
    185e:	33 e0       	ldi	r19, 0x03	; 3
    1860:	0e 94 76 0b 	call	0x16ec	; 0x16ec <GraphLcdCharactorSet_OR_AND>
}
    1864:	08 95       	ret

00001866 <EraseSettingRect>:
	}
}


void EraseSettingRect(shortInt row, shortInt colLeft, shortInt colRight)
{
    1866:	bf 92       	push	r11
    1868:	cf 92       	push	r12
    186a:	df 92       	push	r13
    186c:	ef 92       	push	r14
    186e:	ff 92       	push	r15
    1870:	0f 93       	push	r16
    1872:	1f 93       	push	r17
    1874:	cf 93       	push	r28
    1876:	df 93       	push	r29
    1878:	04 2f       	mov	r16, r20
	ShortInt i;
	ShortInt leftRightDif = colRight - colLeft;
    187a:	b4 2e       	mov	r11, r20
    187c:	b6 1a       	sub	r11, r22
	
	eraseLeftEdge(row, colLeft-1);
    187e:	e8 2e       	mov	r14, r24
    1880:	ff 24       	eor	r15, r15
    1882:	c6 2f       	mov	r28, r22
    1884:	d0 e0       	ldi	r29, 0x00	; 0
    1886:	be 01       	movw	r22, r28
    1888:	61 50       	subi	r22, 0x01	; 1
    188a:	70 40       	sbci	r23, 0x00	; 0
    188c:	c7 01       	movw	r24, r14
    188e:	0e 94 2c 0c 	call	0x1858	; 0x1858 <eraseLeftEdge>
	eraseRightEdge(row, colRight+1);	
    1892:	10 e0       	ldi	r17, 0x00	; 0
    1894:	0f 5f       	subi	r16, 0xFF	; 255
    1896:	1f 4f       	sbci	r17, 0xFF	; 255
    1898:	c7 01       	movw	r24, r14
    189a:	b8 01       	movw	r22, r16
    189c:	0e 94 25 0c 	call	0x184a	; 0x184a <eraseRightEdge>
    18a0:	00 e0       	ldi	r16, 0x00	; 0
	for (i = 0; i < leftRightDif; i++)
	{
		eraseTopEdge(row-1, colLeft, i);	
    18a2:	67 01       	movw	r12, r14
    18a4:	08 94       	sec
    18a6:	c1 08       	sbc	r12, r1
    18a8:	d1 08       	sbc	r13, r1
		eraseBottomEdge(row+1, colLeft, i);
    18aa:	08 94       	sec
    18ac:	e1 1c       	adc	r14, r1
    18ae:	f1 1c       	adc	r15, r1
    18b0:	0d c0       	rjmp	.+26     	; 0x18cc <EraseSettingRect+0x66>
	
	eraseLeftEdge(row, colLeft-1);
	eraseRightEdge(row, colRight+1);	
	for (i = 0; i < leftRightDif; i++)
	{
		eraseTopEdge(row-1, colLeft, i);	
    18b2:	c6 01       	movw	r24, r12
    18b4:	be 01       	movw	r22, r28
    18b6:	40 2f       	mov	r20, r16
    18b8:	50 e0       	ldi	r21, 0x00	; 0
    18ba:	0e 94 16 0c 	call	0x182c	; 0x182c <eraseTopEdge>
		eraseBottomEdge(row+1, colLeft, i);
    18be:	c7 01       	movw	r24, r14
    18c0:	be 01       	movw	r22, r28
    18c2:	40 2f       	mov	r20, r16
    18c4:	50 e0       	ldi	r21, 0x00	; 0
    18c6:	0e 94 07 0c 	call	0x180e	; 0x180e <eraseBottomEdge>
	ShortInt i;
	ShortInt leftRightDif = colRight - colLeft;
	
	eraseLeftEdge(row, colLeft-1);
	eraseRightEdge(row, colRight+1);	
	for (i = 0; i < leftRightDif; i++)
    18ca:	0f 5f       	subi	r16, 0xFF	; 255
    18cc:	0b 15       	cp	r16, r11
    18ce:	88 f3       	brcs	.-30     	; 0x18b2 <EraseSettingRect+0x4c>
	{
		eraseTopEdge(row-1, colLeft, i);	
		eraseBottomEdge(row+1, colLeft, i);
	}
}
    18d0:	df 91       	pop	r29
    18d2:	cf 91       	pop	r28
    18d4:	1f 91       	pop	r17
    18d6:	0f 91       	pop	r16
    18d8:	ff 90       	pop	r15
    18da:	ef 90       	pop	r14
    18dc:	df 90       	pop	r13
    18de:	cf 90       	pop	r12
    18e0:	bf 90       	pop	r11
    18e2:	08 95       	ret

000018e4 <drawBottomEdge>:
							, originTopFonts[offset]);
}


void drawBottomEdge(ShortInt row, ShortInt col, ShortInt offset)
{
    18e4:	24 2f       	mov	r18, r20
	GraphLcdCharactorSet_OR_AND(row,col+offset,font_BottomEdge, 
    18e6:	64 0f       	add	r22, r20
    18e8:	30 e0       	ldi	r19, 0x00	; 0
    18ea:	73 e0       	ldi	r23, 0x03	; 3
    18ec:	22 0f       	add	r18, r18
    18ee:	33 1f       	adc	r19, r19
    18f0:	7a 95       	dec	r23
    18f2:	e1 f7       	brne	.-8      	; 0x18ec <drawBottomEdge+0x8>
    18f4:	2c 52       	subi	r18, 0x2C	; 44
    18f6:	3d 4f       	sbci	r19, 0xFD	; 253
    18f8:	4e e8       	ldi	r20, 0x8E	; 142
    18fa:	52 e0       	ldi	r21, 0x02	; 2
    18fc:	0e 94 76 0b 	call	0x16ec	; 0x16ec <GraphLcdCharactorSet_OR_AND>
							originBottomFonts[offset]);
}
    1900:	08 95       	ret

00001902 <drawTopEdge>:
	GraphLcdCharactorSet_OR_AND(row,col,font_RightEdge, originRightFont);
}


void drawTopEdge(ShortInt row, ShortInt col, ShortInt offset)
{
    1902:	24 2f       	mov	r18, r20
	GraphLcdCharactorSet_OR_AND(row,col+offset,font_TopEdge
    1904:	64 0f       	add	r22, r20
    1906:	30 e0       	ldi	r19, 0x00	; 0
    1908:	e3 e0       	ldi	r30, 0x03	; 3
    190a:	22 0f       	add	r18, r18
    190c:	33 1f       	adc	r19, r19
    190e:	ea 95       	dec	r30
    1910:	e1 f7       	brne	.-8      	; 0x190a <drawTopEdge+0x8>
    1912:	2c 5a       	subi	r18, 0xAC	; 172
    1914:	3c 4f       	sbci	r19, 0xFC	; 252
    1916:	46 e8       	ldi	r20, 0x86	; 134
    1918:	52 e0       	ldi	r21, 0x02	; 2
    191a:	0e 94 76 0b 	call	0x16ec	; 0x16ec <GraphLcdCharactorSet_OR_AND>
							, originTopFonts[offset]);
}
    191e:	08 95       	ret

00001920 <drawRightEdge>:
}


void drawRightEdge(ShortInt row, ShortInt col)
{
	GraphLcdCharactorSet_OR_AND(row,col,font_RightEdge, originRightFont);
    1920:	4e e7       	ldi	r20, 0x7E	; 126
    1922:	52 e0       	ldi	r21, 0x02	; 2
    1924:	2c ec       	ldi	r18, 0xCC	; 204
    1926:	32 e0       	ldi	r19, 0x02	; 2
    1928:	0e 94 76 0b 	call	0x16ec	; 0x16ec <GraphLcdCharactorSet_OR_AND>
}
    192c:	08 95       	ret

0000192e <drawLeftEdge>:

void GraphLcdCharactorSet_OR_AND( unsigned char line
, unsigned char Poz, const char *Charactor, Char *originFont);
void drawLeftEdge(ShortInt row, ShortInt col)
{
	GraphLcdCharactorSet_OR_AND(row,col,font_LeftEdge, originLeftFont);
    192e:	46 e7       	ldi	r20, 0x76	; 118
    1930:	52 e0       	ldi	r21, 0x02	; 2
    1932:	24 ed       	ldi	r18, 0xD4	; 212
    1934:	33 e0       	ldi	r19, 0x03	; 3
    1936:	0e 94 76 0b 	call	0x16ec	; 0x16ec <GraphLcdCharactorSet_OR_AND>
}
    193a:	08 95       	ret

0000193c <ShowSettingRect>:
void drawLeftEdge(ShortInt row, ShortInt col);
void drawRightEdge(ShortInt row, ShortInt col);
void drawTopEdge(ShortInt row, ShortInt col, ShortInt offset);
void drawBottomEdge(ShortInt row, ShortInt col, ShortInt offset);
void ShowSettingRect(shortInt row, shortInt colLeft, shortInt colRight)
{
    193c:	df 92       	push	r13
    193e:	ef 92       	push	r14
    1940:	ff 92       	push	r15
    1942:	0f 93       	push	r16
    1944:	1f 93       	push	r17
    1946:	18 2f       	mov	r17, r24
    1948:	f6 2e       	mov	r15, r22
    194a:	04 2f       	mov	r16, r20
	ShortInt i;
	ShortInt leftRightDif = colRight - colLeft;
    194c:	d4 2e       	mov	r13, r20
    194e:	d6 1a       	sub	r13, r22
	
	drawLeftEdge(row, colLeft-1);
    1950:	61 50       	subi	r22, 0x01	; 1
    1952:	0e 94 97 0c 	call	0x192e	; 0x192e <drawLeftEdge>
	drawRightEdge(row, colRight+1);	
    1956:	0f 5f       	subi	r16, 0xFF	; 255
    1958:	81 2f       	mov	r24, r17
    195a:	60 2f       	mov	r22, r16
    195c:	0e 94 90 0c 	call	0x1920	; 0x1920 <drawRightEdge>
    1960:	00 e0       	ldi	r16, 0x00	; 0
	for (i = 0; i < leftRightDif; i++)
	{
		drawTopEdge(row-1, colLeft, i);	
    1962:	e1 2e       	mov	r14, r17
    1964:	ea 94       	dec	r14
		drawBottomEdge(row+1, colLeft, i);
    1966:	1f 5f       	subi	r17, 0xFF	; 255
    1968:	0b c0       	rjmp	.+22     	; 0x1980 <ShowSettingRect+0x44>
	
	drawLeftEdge(row, colLeft-1);
	drawRightEdge(row, colRight+1);	
	for (i = 0; i < leftRightDif; i++)
	{
		drawTopEdge(row-1, colLeft, i);	
    196a:	8e 2d       	mov	r24, r14
    196c:	6f 2d       	mov	r22, r15
    196e:	40 2f       	mov	r20, r16
    1970:	0e 94 81 0c 	call	0x1902	; 0x1902 <drawTopEdge>
		drawBottomEdge(row+1, colLeft, i);
    1974:	81 2f       	mov	r24, r17
    1976:	6f 2d       	mov	r22, r15
    1978:	40 2f       	mov	r20, r16
    197a:	0e 94 72 0c 	call	0x18e4	; 0x18e4 <drawBottomEdge>
	ShortInt i;
	ShortInt leftRightDif = colRight - colLeft;
	
	drawLeftEdge(row, colLeft-1);
	drawRightEdge(row, colRight+1);	
	for (i = 0; i < leftRightDif; i++)
    197e:	0f 5f       	subi	r16, 0xFF	; 255
    1980:	0d 15       	cp	r16, r13
    1982:	98 f3       	brcs	.-26     	; 0x196a <ShowSettingRect+0x2e>
	{
		drawTopEdge(row-1, colLeft, i);	
		drawBottomEdge(row+1, colLeft, i);
	}
}
    1984:	1f 91       	pop	r17
    1986:	0f 91       	pop	r16
    1988:	ff 90       	pop	r15
    198a:	ef 90       	pop	r14
    198c:	df 90       	pop	r13
    198e:	08 95       	ret

00001990 <__udivmodqi4>:
    1990:	99 1b       	sub	r25, r25
    1992:	79 e0       	ldi	r23, 0x09	; 9
    1994:	04 c0       	rjmp	.+8      	; 0x199e <__udivmodqi4_ep>

00001996 <__udivmodqi4_loop>:
    1996:	99 1f       	adc	r25, r25
    1998:	96 17       	cp	r25, r22
    199a:	08 f0       	brcs	.+2      	; 0x199e <__udivmodqi4_ep>
    199c:	96 1b       	sub	r25, r22

0000199e <__udivmodqi4_ep>:
    199e:	88 1f       	adc	r24, r24
    19a0:	7a 95       	dec	r23
    19a2:	c9 f7       	brne	.-14     	; 0x1996 <__udivmodqi4_loop>
    19a4:	80 95       	com	r24
    19a6:	08 95       	ret

000019a8 <_exit>:
    19a8:	f8 94       	cli

000019aa <__stop_program>:
    19aa:	ff cf       	rjmp	.-2      	; 0x19aa <__stop_program>
